   1              		.cpu arm7tdmi
   2              		.fpu softvfp
   3              		.eabi_attribute 20, 1
   4              		.eabi_attribute 21, 1
   5              		.eabi_attribute 23, 3
   6              		.eabi_attribute 24, 1
   7              		.eabi_attribute 25, 1
   8              		.eabi_attribute 26, 1
   9              		.eabi_attribute 30, 6
  10              		.eabi_attribute 18, 4
  11              		.file	"os_dbg_r.c"
  21              	.Ltext0:
  22              		.file 1 "../kernel/os_core/os_dbg_r.c"
 1631              		.align	1
 1634              	OSDebugEn:
 1635 0000 0100     		.short	1
 1636              		.global	OSEndiannessTest
 1637 0002 0000     		.align	2
 1640              	OSEndiannessTest:
 1641 0004 78563412 		.word	305419896
 1642              		.global	OSEventEn
 1643              		.align	1
 1646              	OSEventEn:
 1647 0008 0100     		.short	1
 1648              		.global	OSEventMax
 1649              		.align	1
 1652              	OSEventMax:
 1653 000a 0A00     		.short	10
 1654              		.global	OSEventNameSize
 1655              		.align	1
 1658              	OSEventNameSize:
 1659 000c 2000     		.short	32
 1660              		.global	OSEventSize
 1661              		.align	1
 1664              	OSEventSize:
 1665 000e 3000     		.short	48
 1666              		.global	OSEventTblSize
 1667              		.align	1
 1670              	OSEventTblSize:
 1671 0010 E001     		.short	480
 1672              		.global	OSFlagEn
 1673              		.align	1
 1676              	OSFlagEn:
 1677 0012 0100     		.short	1
 1678              		.global	OSFlagGrpSize
 1679              		.align	1
 1682              	OSFlagGrpSize:
 1683 0014 2C00     		.short	44
 1684              		.global	OSFlagNodeSize
 1685              		.align	1
 1688              	OSFlagNodeSize:
 1689 0016 1400     		.short	20
 1690              		.global	OSFlagWidth
 1691              		.align	1
 1694              	OSFlagWidth:
 1695 0018 0200     		.short	2
 1696              		.global	OSFlagMax
 1697              		.align	1
 1700              	OSFlagMax:
 1701 001a 0500     		.short	5
 1702              		.global	OSFlagNameSize
 1703              		.align	1
 1706              	OSFlagNameSize:
 1707 001c 2000     		.short	32
 1708              		.global	OSLowestPrio
 1709              		.align	1
 1712              	OSLowestPrio:
 1713 001e 3F00     		.short	63
 1714              		.global	OSMboxEn
 1715              		.align	1
 1718              	OSMboxEn:
 1719 0020 0100     		.short	1
 1720              		.global	OSMemEn
 1721              		.align	1
 1724              	OSMemEn:
 1725 0022 0100     		.short	1
 1726              		.global	OSMemMax
 1727              		.align	1
 1730              	OSMemMax:
 1731 0024 0500     		.short	5
 1732              		.global	OSMemNameSize
 1733              		.align	1
 1736              	OSMemNameSize:
 1737 0026 2000     		.short	32
 1738              		.global	OSMemSize
 1739              		.align	1
 1742              	OSMemSize:
 1743 0028 3400     		.short	52
 1744              		.global	OSMemTblSize
 1745              		.align	1
 1748              	OSMemTblSize:
 1749 002a 0401     		.short	260
 1750              		.global	OSMutexEn
 1751              		.align	1
 1754              	OSMutexEn:
 1755 002c 0100     		.short	1
 1756              		.global	OSPtrSize
 1757              		.align	1
 1760              	OSPtrSize:
 1761 002e 0400     		.short	4
 1762              		.global	OSQEn
 1763              		.align	1
 1766              	OSQEn:
 1767 0030 0100     		.short	1
 1768              		.global	OSQMax
 1769              		.align	1
 1772              	OSQMax:
 1773 0032 0400     		.short	4
 1774              		.global	OSQSize
 1775              		.align	1
 1778              	OSQSize:
 1779 0034 1800     		.short	24
 1780              		.global	OSRdyTblSize
 1781              		.align	1
 1784              	OSRdyTblSize:
 1785 0036 0800     		.short	8
 1786              		.global	OSSemEn
 1787              		.align	1
 1790              	OSSemEn:
 1791 0038 0100     		.short	1
 1792              		.global	OSStkWidth
 1793              		.align	1
 1796              	OSStkWidth:
 1797 003a 0400     		.short	4
 1798              		.global	OSTaskCreateEn
 1799              		.align	1
 1802              	OSTaskCreateEn:
 1803 003c 0100     		.short	1
 1804              		.global	OSTaskCreateExtEn
 1805              		.align	1
 1808              	OSTaskCreateExtEn:
 1809 003e 0100     		.short	1
 1810              		.global	OSTaskDelEn
 1811              		.align	1
 1814              	OSTaskDelEn:
 1815 0040 0100     		.short	1
 1816              		.global	OSTaskIdleStkSize
 1817              		.align	1
 1820              	OSTaskIdleStkSize:
 1821 0042 0002     		.short	512
 1822              		.global	OSTaskProfileEn
 1823              		.align	1
 1826              	OSTaskProfileEn:
 1827 0044 0100     		.short	1
 1828              		.global	OSTaskMax
 1829              		.align	1
 1832              	OSTaskMax:
 1833 0046 1600     		.short	22
 1834              		.global	OSTaskNameSize
 1835              		.align	1
 1838              	OSTaskNameSize:
 1839 0048 2000     		.short	32
 1840              		.global	OSTaskStatEn
 1841              		.align	1
 1844              	OSTaskStatEn:
 1845 004a 0100     		.short	1
 1846              		.global	OSTaskStatStkSize
 1847              		.align	1
 1850              	OSTaskStatStkSize:
 1851 004c 0002     		.short	512
 1852              		.global	OSTaskStatStkChkEn
 1853              		.align	1
 1856              	OSTaskStatStkChkEn:
 1857 004e 0100     		.short	1
 1858              		.global	OSTaskSwHookEn
 1859              		.align	1
 1862              	OSTaskSwHookEn:
 1863 0050 0100     		.short	1
 1864              		.global	OSTCBPrioTblMax
 1865              		.align	1
 1868              	OSTCBPrioTblMax:
 1869 0052 4000     		.short	64
 1870              		.global	OSTCBSize
 1871              		.align	1
 1874              	OSTCBSize:
 1875 0054 6800     		.short	104
 1876              		.global	OSTicksPerSec
 1877              		.align	1
 1880              	OSTicksPerSec:
 1881 0056 6400     		.short	100
 1882              		.global	OSTimeTickHookEn
 1883              		.align	1
 1886              	OSTimeTickHookEn:
 1887 0058 0100     		.short	1
 1888              		.global	OSVersionNbr
 1889              		.align	1
 1892              	OSVersionNbr:
 1893 005a 1401     		.short	276
 1894              		.global	OSDataSize
 1895              		.align	1
 1898              	OSDataSize:
 1899 005c 561E     		.short	7766
 1900 005e 0000     		.text
 1901              		.align	2
 1902              		.global	OSDebugInit
 1904              	OSDebugInit:
 1905              	.LFB0:
   1:../kernel/os_core/os_dbg_r.c **** /*
   2:../kernel/os_core/os_dbg_r.c **** ***************************************************************************************************
   3:../kernel/os_core/os_dbg_r.c **** *                                                uC/OS-II
   4:../kernel/os_core/os_dbg_r.c **** *                                          The Real-Time Kernel
   5:../kernel/os_core/os_dbg_r.c **** *                                           DEBUGGER CONSTANTS
   6:../kernel/os_core/os_dbg_r.c **** *
   7:../kernel/os_core/os_dbg_r.c **** *                             (c) Copyright 2003, Jean J. Labrosse, Weston, FL
   8:../kernel/os_core/os_dbg_r.c **** *                                           All Rights Reserved
   9:../kernel/os_core/os_dbg_r.c **** *
  10:../kernel/os_core/os_dbg_r.c **** * File    : OS_DBG.C
  11:../kernel/os_core/os_dbg_r.c **** * By      : Jean J. Labrosse
  12:../kernel/os_core/os_dbg_r.c **** * Version : V2.76
  13:../kernel/os_core/os_dbg_r.c **** ***************************************************************************************************
  14:../kernel/os_core/os_dbg_r.c **** */
  15:../kernel/os_core/os_dbg_r.c **** 
  16:../kernel/os_core/os_dbg_r.c **** #include "ucos_ii.h"
  17:../kernel/os_core/os_dbg_r.c **** 
  18:../kernel/os_core/os_dbg_r.c **** /*
  19:../kernel/os_core/os_dbg_r.c **** ***************************************************************************************************
  20:../kernel/os_core/os_dbg_r.c **** *                                             DEBUG DATA
  21:../kernel/os_core/os_dbg_r.c **** ***************************************************************************************************
  22:../kernel/os_core/os_dbg_r.c **** */
  23:../kernel/os_core/os_dbg_r.c **** 
  24:../kernel/os_core/os_dbg_r.c **** INT16U  const  OSDebugEn          = OS_DEBUG_EN;                /* Debug constants are defined belo
  25:../kernel/os_core/os_dbg_r.c **** 
  26:../kernel/os_core/os_dbg_r.c **** #if OS_DEBUG_EN > 0
  27:../kernel/os_core/os_dbg_r.c **** 
  28:../kernel/os_core/os_dbg_r.c **** INT32U  const  OSEndiannessTest   = 0x12345678L;                /* Variable to test CPU endianness 
  29:../kernel/os_core/os_dbg_r.c **** 
  30:../kernel/os_core/os_dbg_r.c **** INT16U  const  OSEventEn          = OS_EVENT_EN;
  31:../kernel/os_core/os_dbg_r.c **** INT16U  const  OSEventMax         = OS_MAX_EVENTS;              /* Number of event control blocks  
  32:../kernel/os_core/os_dbg_r.c **** INT16U  const  OSEventNameSize    = OS_EVENT_NAME_SIZE;         /* Size (in bytes) of event names  
  33:../kernel/os_core/os_dbg_r.c **** #if (OS_EVENT_EN > 0) && (OS_MAX_EVENTS > 0)
  34:../kernel/os_core/os_dbg_r.c **** INT16U  const  OSEventSize        = sizeof(OS_EVENT);           /* Size in Bytes of OS_EVENT       
  35:../kernel/os_core/os_dbg_r.c **** INT16U  const  OSEventTblSize     = sizeof(OSEventTbl);         /* Size of OSEventTbl[] in bytes   
  36:../kernel/os_core/os_dbg_r.c **** #else
  37:../kernel/os_core/os_dbg_r.c **** INT16U  const  OSEventSize        = 0;
  38:../kernel/os_core/os_dbg_r.c **** INT16U  const  OSEventTblSize     = 0;
  39:../kernel/os_core/os_dbg_r.c **** #endif
  40:../kernel/os_core/os_dbg_r.c **** 
  41:../kernel/os_core/os_dbg_r.c **** INT16U  const  OSFlagEn           = OS_FLAG_EN;
  42:../kernel/os_core/os_dbg_r.c **** #if (OS_FLAG_EN > 0) && (OS_MAX_FLAGS > 0)
  43:../kernel/os_core/os_dbg_r.c **** INT16U  const  OSFlagGrpSize      = sizeof(OS_FLAG_GRP);        /* Size in Bytes of OS_FLAG_GRP    
  44:../kernel/os_core/os_dbg_r.c **** INT16U  const  OSFlagNodeSize     = sizeof(OS_FLAG_NODE);       /* Size in Bytes of OS_FLAG_NODE   
  45:../kernel/os_core/os_dbg_r.c **** INT16U  const  OSFlagWidth        = sizeof(OS_FLAGS);           /* Width (in bytes) of OS_FLAGS    
  46:../kernel/os_core/os_dbg_r.c **** #else
  47:../kernel/os_core/os_dbg_r.c **** INT16U  const  OSFlagGrpSize      = 0;
  48:../kernel/os_core/os_dbg_r.c **** INT16U  const  OSFlagNodeSize     = 0;
  49:../kernel/os_core/os_dbg_r.c **** INT16U  const  OSFlagWidth        = 0;
  50:../kernel/os_core/os_dbg_r.c **** #endif
  51:../kernel/os_core/os_dbg_r.c **** INT16U  const  OSFlagMax          = OS_MAX_FLAGS;
  52:../kernel/os_core/os_dbg_r.c **** INT16U  const  OSFlagNameSize     = OS_FLAG_NAME_SIZE;          /* Size (in bytes) of flag names   
  53:../kernel/os_core/os_dbg_r.c **** 
  54:../kernel/os_core/os_dbg_r.c **** INT16U  const  OSLowestPrio       = OS_LOWEST_PRIO;
  55:../kernel/os_core/os_dbg_r.c **** 
  56:../kernel/os_core/os_dbg_r.c **** INT16U  const  OSMboxEn           = OS_MBOX_EN;
  57:../kernel/os_core/os_dbg_r.c **** 
  58:../kernel/os_core/os_dbg_r.c **** INT16U  const  OSMemEn            = OS_MEM_EN;
  59:../kernel/os_core/os_dbg_r.c **** INT16U  const  OSMemMax           = OS_MAX_MEM_PART;            /* Number of memory partitions     
  60:../kernel/os_core/os_dbg_r.c **** INT16U  const  OSMemNameSize      = OS_MEM_NAME_SIZE;           /* Size (in bytes) of partition nam
  61:../kernel/os_core/os_dbg_r.c **** #if (OS_MEM_EN > 0) && (OS_MAX_MEM_PART > 0)
  62:../kernel/os_core/os_dbg_r.c **** INT16U  const  OSMemSize          = sizeof(OS_MEM);             /* Mem. Partition header sine (byte
  63:../kernel/os_core/os_dbg_r.c **** INT16U  const  OSMemTblSize       = sizeof(OSMemTbl);
  64:../kernel/os_core/os_dbg_r.c **** #else
  65:../kernel/os_core/os_dbg_r.c **** INT16U  const  OSMemSize          = 0;
  66:../kernel/os_core/os_dbg_r.c **** INT16U  const  OSMemTblSize       = 0;
  67:../kernel/os_core/os_dbg_r.c **** #endif
  68:../kernel/os_core/os_dbg_r.c **** INT16U  const  OSMutexEn          = OS_MUTEX_EN;
  69:../kernel/os_core/os_dbg_r.c **** 
  70:../kernel/os_core/os_dbg_r.c **** INT16U  const  OSPtrSize          = sizeof(void *);             /* Size in Bytes of a pointer      
  71:../kernel/os_core/os_dbg_r.c **** 
  72:../kernel/os_core/os_dbg_r.c **** INT16U  const  OSQEn              = OS_Q_EN;
  73:../kernel/os_core/os_dbg_r.c **** INT16U  const  OSQMax             = OS_MAX_QS;                  /* Number of queues                
  74:../kernel/os_core/os_dbg_r.c **** #if (OS_Q_EN > 0) && (OS_MAX_QS > 0)
  75:../kernel/os_core/os_dbg_r.c **** INT16U  const  OSQSize            = sizeof(OS_Q);               /* Size in bytes of OS_Q structure 
  76:../kernel/os_core/os_dbg_r.c **** #else
  77:../kernel/os_core/os_dbg_r.c **** INT16U  const  OSQSize            = 0;
  78:../kernel/os_core/os_dbg_r.c **** #endif
  79:../kernel/os_core/os_dbg_r.c **** 
  80:../kernel/os_core/os_dbg_r.c **** INT16U  const  OSRdyTblSize       = OS_RDY_TBL_SIZE;            /* Number of bytes in the ready tab
  81:../kernel/os_core/os_dbg_r.c **** 
  82:../kernel/os_core/os_dbg_r.c **** INT16U  const  OSSemEn            = OS_SEM_EN;
  83:../kernel/os_core/os_dbg_r.c **** 
  84:../kernel/os_core/os_dbg_r.c **** INT16U  const  OSStkWidth         = sizeof(OS_STK);             /* Size in Bytes of a stack entry  
  85:../kernel/os_core/os_dbg_r.c **** 
  86:../kernel/os_core/os_dbg_r.c **** INT16U  const  OSTaskCreateEn     = OS_TASK_CREATE_EN;
  87:../kernel/os_core/os_dbg_r.c **** INT16U  const  OSTaskCreateExtEn  = OS_TASK_CREATE_EXT_EN;
  88:../kernel/os_core/os_dbg_r.c **** INT16U  const  OSTaskDelEn        = OS_TASK_DEL_EN;
  89:../kernel/os_core/os_dbg_r.c **** INT16U  const  OSTaskIdleStkSize  = OS_TASK_IDLE_STK_SIZE;
  90:../kernel/os_core/os_dbg_r.c **** INT16U  const  OSTaskProfileEn    = OS_TASK_PROFILE_EN;
  91:../kernel/os_core/os_dbg_r.c **** INT16U  const  OSTaskMax          = OS_MAX_TASKS + OS_N_SYS_TASKS;  /* Total max. number of tasks  
  92:../kernel/os_core/os_dbg_r.c **** INT16U  const  OSTaskNameSize     = OS_TASK_NAME_SIZE;              /* Size (in bytes) of task name
  93:../kernel/os_core/os_dbg_r.c **** INT16U  const  OSTaskStatEn       = OS_TASK_STAT_EN;
  94:../kernel/os_core/os_dbg_r.c **** INT16U  const  OSTaskStatStkSize  = OS_TASK_STAT_STK_SIZE;
  95:../kernel/os_core/os_dbg_r.c **** INT16U  const  OSTaskStatStkChkEn = OS_TASK_STAT_STK_CHK_EN;
  96:../kernel/os_core/os_dbg_r.c **** INT16U  const  OSTaskSwHookEn     = OS_TASK_SW_HOOK_EN;
  97:../kernel/os_core/os_dbg_r.c **** 
  98:../kernel/os_core/os_dbg_r.c **** INT16U  const  OSTCBPrioTblMax    = OS_LOWEST_PRIO + 1;         /* Number of entries in OSTCBPrioTb
  99:../kernel/os_core/os_dbg_r.c **** INT16U  const  OSTCBSize          = sizeof(OS_TCB);             /* Size in Bytes of OS_TCB         
 100:../kernel/os_core/os_dbg_r.c **** INT16U  const  OSTicksPerSec      = OS_TICKS_PER_SEC;
 101:../kernel/os_core/os_dbg_r.c **** INT16U  const  OSTimeTickHookEn   = OS_TIME_TICK_HOOK_EN;
 102:../kernel/os_core/os_dbg_r.c **** INT16U  const  OSVersionNbr       = OS_VERSION;
 103:../kernel/os_core/os_dbg_r.c **** 
 104:../kernel/os_core/os_dbg_r.c **** #endif
 105:../kernel/os_core/os_dbg_r.c **** 
 106:../kernel/os_core/os_dbg_r.c **** /*$PAGE*/
 107:../kernel/os_core/os_dbg_r.c **** /*
 108:../kernel/os_core/os_dbg_r.c **** ***************************************************************************************************
 109:../kernel/os_core/os_dbg_r.c **** *                                             DEBUG DATA
 110:../kernel/os_core/os_dbg_r.c **** *                            TOTAL DATA SPACE (i.e. RAM) USED BY uC/OS-II
 111:../kernel/os_core/os_dbg_r.c **** ***************************************************************************************************
 112:../kernel/os_core/os_dbg_r.c **** */
 113:../kernel/os_core/os_dbg_r.c **** #if OS_DEBUG_EN > 0
 114:../kernel/os_core/os_dbg_r.c **** 
 115:../kernel/os_core/os_dbg_r.c **** INT16U  const  OSDataSize = sizeof(OSCtxSwCtr)
 116:../kernel/os_core/os_dbg_r.c **** #if (OS_EVENT_EN > 0) && (OS_MAX_EVENTS > 0)
 117:../kernel/os_core/os_dbg_r.c ****                           + sizeof(OSEventFreeList)
 118:../kernel/os_core/os_dbg_r.c ****                           + sizeof(OSEventTbl)
 119:../kernel/os_core/os_dbg_r.c **** #endif
 120:../kernel/os_core/os_dbg_r.c **** #if (OS_VERSION >= 251) && (OS_FLAG_EN > 0) && (OS_MAX_FLAGS > 0)
 121:../kernel/os_core/os_dbg_r.c ****                           + sizeof(OSFlagTbl)
 122:../kernel/os_core/os_dbg_r.c ****                           + sizeof(OSFlagFreeList)
 123:../kernel/os_core/os_dbg_r.c **** #endif
 124:../kernel/os_core/os_dbg_r.c **** #if OS_TASK_STAT_EN > 0
 125:../kernel/os_core/os_dbg_r.c ****                           + sizeof(OSCPUUsage)
 126:../kernel/os_core/os_dbg_r.c ****                           + sizeof(OSIdleCtrMax)
 127:../kernel/os_core/os_dbg_r.c ****                           + sizeof(OSIdleCtrRun)
 128:../kernel/os_core/os_dbg_r.c ****                           + sizeof(OSStatRdy)
 129:../kernel/os_core/os_dbg_r.c ****                           + sizeof(OSTaskStatStk)
 130:../kernel/os_core/os_dbg_r.c **** #endif
 131:../kernel/os_core/os_dbg_r.c **** #if OS_TICK_STEP_EN > 0
 132:../kernel/os_core/os_dbg_r.c ****                           + sizeof(OSTickStepState)
 133:../kernel/os_core/os_dbg_r.c **** #endif
 134:../kernel/os_core/os_dbg_r.c **** #if (OS_MEM_EN > 0) && (OS_MAX_MEM_PART > 0)
 135:../kernel/os_core/os_dbg_r.c ****                           + sizeof(OSMemFreeList)
 136:../kernel/os_core/os_dbg_r.c ****                           + sizeof(OSMemTbl)
 137:../kernel/os_core/os_dbg_r.c **** #endif
 138:../kernel/os_core/os_dbg_r.c **** #if (OS_Q_EN > 0) && (OS_MAX_QS > 0)
 139:../kernel/os_core/os_dbg_r.c ****                           + sizeof(OSQFreeList)
 140:../kernel/os_core/os_dbg_r.c ****                           + sizeof(OSQTbl)
 141:../kernel/os_core/os_dbg_r.c **** #endif
 142:../kernel/os_core/os_dbg_r.c **** #if OS_TIME_GET_SET_EN > 0   
 143:../kernel/os_core/os_dbg_r.c ****                           + sizeof(OSTime)
 144:../kernel/os_core/os_dbg_r.c **** #endif
 145:../kernel/os_core/os_dbg_r.c ****                           + sizeof(OSIntNesting)
 146:../kernel/os_core/os_dbg_r.c ****                           + sizeof(OSLockNesting)
 147:../kernel/os_core/os_dbg_r.c ****                           + sizeof(OSPrioCur)
 148:../kernel/os_core/os_dbg_r.c ****                           + sizeof(OSPrioHighRdy)
 149:../kernel/os_core/os_dbg_r.c ****                           + sizeof(OSRdyGrp)
 150:../kernel/os_core/os_dbg_r.c ****                           + sizeof(OSRdyTbl)
 151:../kernel/os_core/os_dbg_r.c ****                           + sizeof(OSRunning)
 152:../kernel/os_core/os_dbg_r.c ****                           + sizeof(OSTaskCtr)
 153:../kernel/os_core/os_dbg_r.c ****                           + sizeof(OSIdleCtr)
 154:../kernel/os_core/os_dbg_r.c ****                           + sizeof(OSTaskIdleStk)
 155:../kernel/os_core/os_dbg_r.c ****                           + sizeof(OSTCBCur)
 156:../kernel/os_core/os_dbg_r.c ****                           + sizeof(OSTCBFreeList)
 157:../kernel/os_core/os_dbg_r.c ****                           + sizeof(OSTCBHighRdy)
 158:../kernel/os_core/os_dbg_r.c ****                           + sizeof(OSTCBList)
 159:../kernel/os_core/os_dbg_r.c ****                           + sizeof(OSTCBPrioTbl)
 160:../kernel/os_core/os_dbg_r.c ****                           + sizeof(OSTCBTbl);
 161:../kernel/os_core/os_dbg_r.c **** 
 162:../kernel/os_core/os_dbg_r.c **** #endif
 163:../kernel/os_core/os_dbg_r.c **** 
 164:../kernel/os_core/os_dbg_r.c **** /*$PAGE*/
 165:../kernel/os_core/os_dbg_r.c **** /*
 166:../kernel/os_core/os_dbg_r.c **** ***************************************************************************************************
 167:../kernel/os_core/os_dbg_r.c **** *                                        OS DEBUG INITIALIZATION
 168:../kernel/os_core/os_dbg_r.c **** *
 169:../kernel/os_core/os_dbg_r.c **** * Description: This function is used to make sure that debug variables that are unused in the appli
 170:../kernel/os_core/os_dbg_r.c **** *              are not optimized away.  This function might not be necessary for all compilers.  In
 171:../kernel/os_core/os_dbg_r.c **** *              case, you should simply DELETE the code in this function while still leaving the dec
 172:../kernel/os_core/os_dbg_r.c **** *              of the function itself.
 173:../kernel/os_core/os_dbg_r.c **** *
 174:../kernel/os_core/os_dbg_r.c **** * Arguments  : none
 175:../kernel/os_core/os_dbg_r.c **** *
 176:../kernel/os_core/os_dbg_r.c **** * Returns    : none
 177:../kernel/os_core/os_dbg_r.c **** *
 178:../kernel/os_core/os_dbg_r.c **** * Note(s)    : (1) This code doesn't do anything, it simply prevents the compiler from optimizing o
 179:../kernel/os_core/os_dbg_r.c **** *                  the 'const' variables which are declared in this file.
 180:../kernel/os_core/os_dbg_r.c **** *              (2) You may decide to 'compile out' the code (by using #ff 0/#endif) INSIDE the func
 181:../kernel/os_core/os_dbg_r.c **** *                  if your compiler DOES NOT optimize out the 'const' variables above.
 182:../kernel/os_core/os_dbg_r.c **** ***************************************************************************************************
 183:../kernel/os_core/os_dbg_r.c **** */
 184:../kernel/os_core/os_dbg_r.c **** 
 185:../kernel/os_core/os_dbg_r.c **** #if OS_VERSION >= 270 && OS_DEBUG_EN > 0
 186:../kernel/os_core/os_dbg_r.c **** void  OSDebugInit (void)
 187:../kernel/os_core/os_dbg_r.c **** {
 1906              		.loc 1 187 0
 1907              		.cfi_startproc
 1908              		@ Function supports interworking.
 1909              		@ args = 0, pretend = 0, frame = 8
 1910              		@ frame_needed = 1, uses_anonymous_args = 0
 1911 0000 0DC0A0E1 		mov	ip, sp
 1912              	.LCFI0:
 1913              		.cfi_def_cfa_register 12
 1914 0004 00D82DE9 		stmfd	sp!, {fp, ip, lr, pc}
 1915 0008 04B04CE2 		sub	fp, ip, #4
 1916              		.cfi_offset 14, -8
 1917              		.cfi_offset 13, -12
 1918              		.cfi_offset 11, -16
 1919              	.LCFI1:
 1920              		.cfi_def_cfa 11, 4
 1921 000c 08D04DE2 		sub	sp, sp, #8
 188:../kernel/os_core/os_dbg_r.c ****     void  *ptemp;
 189:../kernel/os_core/os_dbg_r.c **** 
 190:../kernel/os_core/os_dbg_r.c ****     
 191:../kernel/os_core/os_dbg_r.c ****     ptemp = (void *)&OSDebugEn;
 1922              		.loc 1 191 0
 1923 0010 6C319FE5 		ldr	r3, .L2
 1924 0014 10300BE5 		str	r3, [fp, #-16]
 192:../kernel/os_core/os_dbg_r.c **** 
 193:../kernel/os_core/os_dbg_r.c ****     ptemp = (void *)&OSEndiannessTest;
 1925              		.loc 1 193 0
 1926 0018 68319FE5 		ldr	r3, .L2+4
 1927 001c 10300BE5 		str	r3, [fp, #-16]
 194:../kernel/os_core/os_dbg_r.c **** 
 195:../kernel/os_core/os_dbg_r.c ****     ptemp = (void *)&OSEventMax;
 1928              		.loc 1 195 0
 1929 0020 64319FE5 		ldr	r3, .L2+8
 1930 0024 10300BE5 		str	r3, [fp, #-16]
 196:../kernel/os_core/os_dbg_r.c ****     ptemp = (void *)&OSEventNameSize;
 1931              		.loc 1 196 0
 1932 0028 60319FE5 		ldr	r3, .L2+12
 1933 002c 10300BE5 		str	r3, [fp, #-16]
 197:../kernel/os_core/os_dbg_r.c ****     ptemp = (void *)&OSEventEn;
 1934              		.loc 1 197 0
 1935 0030 5C319FE5 		ldr	r3, .L2+16
 1936 0034 10300BE5 		str	r3, [fp, #-16]
 198:../kernel/os_core/os_dbg_r.c ****     ptemp = (void *)&OSEventSize;
 1937              		.loc 1 198 0
 1938 0038 58319FE5 		ldr	r3, .L2+20
 1939 003c 10300BE5 		str	r3, [fp, #-16]
 199:../kernel/os_core/os_dbg_r.c ****     ptemp = (void *)&OSEventTblSize;
 1940              		.loc 1 199 0
 1941 0040 54319FE5 		ldr	r3, .L2+24
 1942 0044 10300BE5 		str	r3, [fp, #-16]
 200:../kernel/os_core/os_dbg_r.c **** 
 201:../kernel/os_core/os_dbg_r.c ****     ptemp = (void *)&OSFlagEn;
 1943              		.loc 1 201 0
 1944 0048 50319FE5 		ldr	r3, .L2+28
 1945 004c 10300BE5 		str	r3, [fp, #-16]
 202:../kernel/os_core/os_dbg_r.c ****     ptemp = (void *)&OSFlagGrpSize;
 1946              		.loc 1 202 0
 1947 0050 4C319FE5 		ldr	r3, .L2+32
 1948 0054 10300BE5 		str	r3, [fp, #-16]
 203:../kernel/os_core/os_dbg_r.c ****     ptemp = (void *)&OSFlagNodeSize;
 1949              		.loc 1 203 0
 1950 0058 48319FE5 		ldr	r3, .L2+36
 1951 005c 10300BE5 		str	r3, [fp, #-16]
 204:../kernel/os_core/os_dbg_r.c ****     ptemp = (void *)&OSFlagWidth;
 1952              		.loc 1 204 0
 1953 0060 44319FE5 		ldr	r3, .L2+40
 1954 0064 10300BE5 		str	r3, [fp, #-16]
 205:../kernel/os_core/os_dbg_r.c ****     ptemp = (void *)&OSFlagMax;
 1955              		.loc 1 205 0
 1956 0068 40319FE5 		ldr	r3, .L2+44
 1957 006c 10300BE5 		str	r3, [fp, #-16]
 206:../kernel/os_core/os_dbg_r.c ****     ptemp = (void *)&OSFlagNameSize;
 1958              		.loc 1 206 0
 1959 0070 3C319FE5 		ldr	r3, .L2+48
 1960 0074 10300BE5 		str	r3, [fp, #-16]
 207:../kernel/os_core/os_dbg_r.c **** 
 208:../kernel/os_core/os_dbg_r.c ****     ptemp = (void *)&OSLowestPrio;
 1961              		.loc 1 208 0
 1962 0078 38319FE5 		ldr	r3, .L2+52
 1963 007c 10300BE5 		str	r3, [fp, #-16]
 209:../kernel/os_core/os_dbg_r.c **** 
 210:../kernel/os_core/os_dbg_r.c ****     ptemp = (void *)&OSMboxEn;
 1964              		.loc 1 210 0
 1965 0080 34319FE5 		ldr	r3, .L2+56
 1966 0084 10300BE5 		str	r3, [fp, #-16]
 211:../kernel/os_core/os_dbg_r.c **** 
 212:../kernel/os_core/os_dbg_r.c ****     ptemp = (void *)&OSMemEn;
 1967              		.loc 1 212 0
 1968 0088 30319FE5 		ldr	r3, .L2+60
 1969 008c 10300BE5 		str	r3, [fp, #-16]
 213:../kernel/os_core/os_dbg_r.c ****     ptemp = (void *)&OSMemMax;
 1970              		.loc 1 213 0
 1971 0090 2C319FE5 		ldr	r3, .L2+64
 1972 0094 10300BE5 		str	r3, [fp, #-16]
 214:../kernel/os_core/os_dbg_r.c ****     ptemp = (void *)&OSMemNameSize;
 1973              		.loc 1 214 0
 1974 0098 28319FE5 		ldr	r3, .L2+68
 1975 009c 10300BE5 		str	r3, [fp, #-16]
 215:../kernel/os_core/os_dbg_r.c ****     ptemp = (void *)&OSMemSize;
 1976              		.loc 1 215 0
 1977 00a0 24319FE5 		ldr	r3, .L2+72
 1978 00a4 10300BE5 		str	r3, [fp, #-16]
 216:../kernel/os_core/os_dbg_r.c ****     ptemp = (void *)&OSMemTblSize;
 1979              		.loc 1 216 0
 1980 00a8 20319FE5 		ldr	r3, .L2+76
 1981 00ac 10300BE5 		str	r3, [fp, #-16]
 217:../kernel/os_core/os_dbg_r.c **** 
 218:../kernel/os_core/os_dbg_r.c ****     ptemp = (void *)&OSMutexEn;
 1982              		.loc 1 218 0
 1983 00b0 1C319FE5 		ldr	r3, .L2+80
 1984 00b4 10300BE5 		str	r3, [fp, #-16]
 219:../kernel/os_core/os_dbg_r.c **** 
 220:../kernel/os_core/os_dbg_r.c ****     ptemp = (void *)&OSPtrSize;
 1985              		.loc 1 220 0
 1986 00b8 18319FE5 		ldr	r3, .L2+84
 1987 00bc 10300BE5 		str	r3, [fp, #-16]
 221:../kernel/os_core/os_dbg_r.c **** 
 222:../kernel/os_core/os_dbg_r.c ****     ptemp = (void *)&OSQEn;
 1988              		.loc 1 222 0
 1989 00c0 14319FE5 		ldr	r3, .L2+88
 1990 00c4 10300BE5 		str	r3, [fp, #-16]
 223:../kernel/os_core/os_dbg_r.c ****     ptemp = (void *)&OSQMax;
 1991              		.loc 1 223 0
 1992 00c8 10319FE5 		ldr	r3, .L2+92
 1993 00cc 10300BE5 		str	r3, [fp, #-16]
 224:../kernel/os_core/os_dbg_r.c ****     ptemp = (void *)&OSQSize;
 1994              		.loc 1 224 0
 1995 00d0 0C319FE5 		ldr	r3, .L2+96
 1996 00d4 10300BE5 		str	r3, [fp, #-16]
 225:../kernel/os_core/os_dbg_r.c **** 
 226:../kernel/os_core/os_dbg_r.c ****     ptemp = (void *)&OSRdyTblSize;
 1997              		.loc 1 226 0
 1998 00d8 08319FE5 		ldr	r3, .L2+100
 1999 00dc 10300BE5 		str	r3, [fp, #-16]
 227:../kernel/os_core/os_dbg_r.c **** 
 228:../kernel/os_core/os_dbg_r.c ****     ptemp = (void *)&OSSemEn;
 2000              		.loc 1 228 0
 2001 00e0 04319FE5 		ldr	r3, .L2+104
 2002 00e4 10300BE5 		str	r3, [fp, #-16]
 229:../kernel/os_core/os_dbg_r.c **** 
 230:../kernel/os_core/os_dbg_r.c ****     ptemp = (void *)&OSStkWidth;
 2003              		.loc 1 230 0
 2004 00e8 00319FE5 		ldr	r3, .L2+108
 2005 00ec 10300BE5 		str	r3, [fp, #-16]
 231:../kernel/os_core/os_dbg_r.c **** 
 232:../kernel/os_core/os_dbg_r.c ****     ptemp = (void *)&OSTaskCreateEn;
 2006              		.loc 1 232 0
 2007 00f0 FC309FE5 		ldr	r3, .L2+112
 2008 00f4 10300BE5 		str	r3, [fp, #-16]
 233:../kernel/os_core/os_dbg_r.c ****     ptemp = (void *)&OSTaskCreateExtEn;
 2009              		.loc 1 233 0
 2010 00f8 F8309FE5 		ldr	r3, .L2+116
 2011 00fc 10300BE5 		str	r3, [fp, #-16]
 234:../kernel/os_core/os_dbg_r.c ****     ptemp = (void *)&OSTaskDelEn;
 2012              		.loc 1 234 0
 2013 0100 F4309FE5 		ldr	r3, .L2+120
 2014 0104 10300BE5 		str	r3, [fp, #-16]
 235:../kernel/os_core/os_dbg_r.c ****     ptemp = (void *)&OSTaskIdleStkSize;
 2015              		.loc 1 235 0
 2016 0108 F0309FE5 		ldr	r3, .L2+124
 2017 010c 10300BE5 		str	r3, [fp, #-16]
 236:../kernel/os_core/os_dbg_r.c ****     ptemp = (void *)&OSTaskProfileEn;
 2018              		.loc 1 236 0
 2019 0110 EC309FE5 		ldr	r3, .L2+128
 2020 0114 10300BE5 		str	r3, [fp, #-16]
 237:../kernel/os_core/os_dbg_r.c ****     ptemp = (void *)&OSTaskMax;
 2021              		.loc 1 237 0
 2022 0118 E8309FE5 		ldr	r3, .L2+132
 2023 011c 10300BE5 		str	r3, [fp, #-16]
 238:../kernel/os_core/os_dbg_r.c ****     ptemp = (void *)&OSTaskNameSize;
 2024              		.loc 1 238 0
 2025 0120 E4309FE5 		ldr	r3, .L2+136
 2026 0124 10300BE5 		str	r3, [fp, #-16]
 239:../kernel/os_core/os_dbg_r.c ****     ptemp = (void *)&OSTaskStatEn;
 2027              		.loc 1 239 0
 2028 0128 E0309FE5 		ldr	r3, .L2+140
 2029 012c 10300BE5 		str	r3, [fp, #-16]
 240:../kernel/os_core/os_dbg_r.c ****     ptemp = (void *)&OSTaskStatStkSize;
 2030              		.loc 1 240 0
 2031 0130 DC309FE5 		ldr	r3, .L2+144
 2032 0134 10300BE5 		str	r3, [fp, #-16]
 241:../kernel/os_core/os_dbg_r.c ****     ptemp = (void *)&OSTaskStatStkChkEn;
 2033              		.loc 1 241 0
 2034 0138 D8309FE5 		ldr	r3, .L2+148
 2035 013c 10300BE5 		str	r3, [fp, #-16]
 242:../kernel/os_core/os_dbg_r.c ****     ptemp = (void *)&OSTaskSwHookEn;
 2036              		.loc 1 242 0
 2037 0140 D4309FE5 		ldr	r3, .L2+152
 2038 0144 10300BE5 		str	r3, [fp, #-16]
 243:../kernel/os_core/os_dbg_r.c **** 
 244:../kernel/os_core/os_dbg_r.c ****     ptemp = (void *)&OSTCBPrioTblMax;
 2039              		.loc 1 244 0
 2040 0148 D0309FE5 		ldr	r3, .L2+156
 2041 014c 10300BE5 		str	r3, [fp, #-16]
 245:../kernel/os_core/os_dbg_r.c ****     ptemp = (void *)&OSTCBSize;
 2042              		.loc 1 245 0
 2043 0150 CC309FE5 		ldr	r3, .L2+160
 2044 0154 10300BE5 		str	r3, [fp, #-16]
 246:../kernel/os_core/os_dbg_r.c **** 
 247:../kernel/os_core/os_dbg_r.c ****     ptemp = (void *)&OSTicksPerSec;
 2045              		.loc 1 247 0
 2046 0158 C8309FE5 		ldr	r3, .L2+164
 2047 015c 10300BE5 		str	r3, [fp, #-16]
 248:../kernel/os_core/os_dbg_r.c ****     ptemp = (void *)&OSTimeTickHookEn;
 2048              		.loc 1 248 0
 2049 0160 C4309FE5 		ldr	r3, .L2+168
 2050 0164 10300BE5 		str	r3, [fp, #-16]
 249:../kernel/os_core/os_dbg_r.c **** 
 250:../kernel/os_core/os_dbg_r.c ****     ptemp = (void *)&OSVersionNbr;
 2051              		.loc 1 250 0
 2052 0168 C0309FE5 		ldr	r3, .L2+172
 2053 016c 10300BE5 		str	r3, [fp, #-16]
 251:../kernel/os_core/os_dbg_r.c **** 
 252:../kernel/os_core/os_dbg_r.c ****     ptemp = (void *)&OSDataSize;
 2054              		.loc 1 252 0
 2055 0170 BC309FE5 		ldr	r3, .L2+176
 2056 0174 10300BE5 		str	r3, [fp, #-16]
 253:../kernel/os_core/os_dbg_r.c **** 
 254:../kernel/os_core/os_dbg_r.c ****     ptemp = ptemp;                             /* Prevent compiler warning for 'ptemp' not being us
 255:../kernel/os_core/os_dbg_r.c **** }
 2057              		.loc 1 255 0
 2058 0178 0CD04BE2 		sub	sp, fp, #12
 2059 017c 00689DE8 		ldmfd	sp, {fp, sp, lr}
 2060 0180 1EFF2FE1 		bx	lr
 2061              	.L3:
 2062              		.align	2
 2063              	.L2:
 2064 0184 00000000 		.word	OSDebugEn
 2065 0188 00000000 		.word	OSEndiannessTest
 2066 018c 00000000 		.word	OSEventMax
 2067 0190 00000000 		.word	OSEventNameSize
 2068 0194 00000000 		.word	OSEventEn
 2069 0198 00000000 		.word	OSEventSize
 2070 019c 00000000 		.word	OSEventTblSize
 2071 01a0 00000000 		.word	OSFlagEn
 2072 01a4 00000000 		.word	OSFlagGrpSize
 2073 01a8 00000000 		.word	OSFlagNodeSize
 2074 01ac 00000000 		.word	OSFlagWidth
 2075 01b0 00000000 		.word	OSFlagMax
 2076 01b4 00000000 		.word	OSFlagNameSize
 2077 01b8 00000000 		.word	OSLowestPrio
 2078 01bc 00000000 		.word	OSMboxEn
 2079 01c0 00000000 		.word	OSMemEn
 2080 01c4 00000000 		.word	OSMemMax
 2081 01c8 00000000 		.word	OSMemNameSize
 2082 01cc 00000000 		.word	OSMemSize
 2083 01d0 00000000 		.word	OSMemTblSize
 2084 01d4 00000000 		.word	OSMutexEn
 2085 01d8 00000000 		.word	OSPtrSize
 2086 01dc 00000000 		.word	OSQEn
 2087 01e0 00000000 		.word	OSQMax
 2088 01e4 00000000 		.word	OSQSize
 2089 01e8 00000000 		.word	OSRdyTblSize
 2090 01ec 00000000 		.word	OSSemEn
 2091 01f0 00000000 		.word	OSStkWidth
 2092 01f4 00000000 		.word	OSTaskCreateEn
 2093 01f8 00000000 		.word	OSTaskCreateExtEn
 2094 01fc 00000000 		.word	OSTaskDelEn
 2095 0200 00000000 		.word	OSTaskIdleStkSize
 2096 0204 00000000 		.word	OSTaskProfileEn
 2097 0208 00000000 		.word	OSTaskMax
 2098 020c 00000000 		.word	OSTaskNameSize
 2099 0210 00000000 		.word	OSTaskStatEn
 2100 0214 00000000 		.word	OSTaskStatStkSize
 2101 0218 00000000 		.word	OSTaskStatStkChkEn
 2102 021c 00000000 		.word	OSTaskSwHookEn
 2103 0220 00000000 		.word	OSTCBPrioTblMax
 2104 0224 00000000 		.word	OSTCBSize
 2105 0228 00000000 		.word	OSTicksPerSec
 2106 022c 00000000 		.word	OSTimeTickHookEn
 2107 0230 00000000 		.word	OSVersionNbr
 2108 0234 00000000 		.word	OSDataSize
 2109              		.cfi_endproc
 2110              	.LFE0:
 2112              	.Letext0: