   1              		.cpu arm7tdmi
   2              		.fpu softvfp
   3              		.eabi_attribute 20, 1
   4              		.eabi_attribute 21, 1
   5              		.eabi_attribute 23, 3
   6              		.eabi_attribute 24, 1
   7              		.eabi_attribute 25, 1
   8              		.eabi_attribute 26, 1
   9              		.eabi_attribute 30, 6
  10              		.eabi_attribute 18, 4
  11              		.file	"main.c"
  21              	.Ltext0:
  22              		.file 1 "../main.c"
 2916              		.align	2
 2917              		.global	timer_ISR
 2919              	timer_ISR:
 2920              	.LFB0:
   1:../main.c     **** #include <stdio.h>
   2:../main.c     **** #include "44b.h"
   3:../main.c     **** #include "button.h"
   4:../main.c     **** #include "leds.h"
   5:../main.c     **** #include "utils.h"
   6:../main.c     **** #include "D8Led.h"
   7:../main.c     **** #include "intcontroller.h"
   8:../main.c     **** #include "timer.h"
   9:../main.c     **** #include "gpio.h"
  10:../main.c     **** #include "keyboard.h"
  11:../main.c     **** #include "uart.h"
  12:../main.c     **** #include "rtc.h"
  13:../main.c     **** #include "common_types.h"
  14:../main.c     **** #include "at24c04.h"
  15:../main.c     **** #include "lcd.h"
  16:../main.c     **** #include "iic.h"
  17:../main.c     **** 
  18:../main.c     **** // BMP Images sourced by using GDB
  19:../main.c     **** #define ARBOL      ((uint8 *)0x0c210000)
  20:../main.c     **** #define PADRINO    ((uint8 *)0x0c220000)
  21:../main.c     **** #define PICACHU    ((uint8 *)0x0c230000)
  22:../main.c     **** #define HARRY      ((uint8 *)0x0c240000)
  23:../main.c     **** #define CHAPLIN    ((uint8 *)0x0c250000)
  24:../main.c     **** #define PULP       ((uint8 *)0x0c260000)
  25:../main.c     **** #define MAPA       ((uint8 *)0x0c270000)
  26:../main.c     **** 
  27:../main.c     **** void timer_ISR(void) __attribute__ ((interrupt ("IRQ")));
  28:../main.c     **** void button_ISR(void) __attribute__ ((interrupt ("IRQ")));
  29:../main.c     **** void keyboard_ISR(void) __attribute__ ((interrupt ("IRQ")));
  30:../main.c     **** void rtc_ISR(void)  __attribute__ ((interrupt ("IRQ")));
  31:../main.c     **** void rtc_alarm_ISR(void)  __attribute__ ((interrupt ("IRQ")));
  32:../main.c     **** 
  33:../main.c     **** void timer_ISR(void)
  34:../main.c     **** {
 2921              		.loc 1 34 0
 2922              		.cfi_startproc
 2923              		@ Interrupt Service Routine.
 2924              		@ args = 0, pretend = 0, frame = 0
 2925              		@ frame_needed = 1, uses_anonymous_args = 0
 2926 0000 04C02DE5 		str	ip, [sp, #-4]!
 2927 0004 0DC0A0E1 		mov	ip, sp
 2928              	.LCFI0:
 2929              		.cfi_def_cfa_register 12
 2930 0008 0FD82DE9 		stmfd	sp!, {r0, r1, r2, r3, fp, ip, lr, pc}
 2931 000c 04B04CE2 		sub	fp, ip, #4
 2932              		.cfi_offset 14, -8
 2933              		.cfi_offset 13, -12
 2934              		.cfi_offset 11, -16
 2935              		.cfi_offset 3, -20
 2936              		.cfi_offset 2, -24
 2937              		.cfi_offset 1, -28
 2938              		.cfi_offset 0, -32
 2939              	.LCFI1:
 2940              		.cfi_def_cfa 11, 4
  35:../main.c     **** 	//Timer ISR Implementation
  36:../main.c     **** 	led1_switch();
 2941              		.loc 1 36 0
 2942 0010 FEFFFFEB 		bl	led1_switch
  37:../main.c     **** 	led2_switch();
 2943              		.loc 1 37 0
 2944 0014 FEFFFFEB 		bl	led2_switch
  38:../main.c     **** 
  39:../main.c     **** 	ic_cleanflag(INT_TIMER0);
 2945              		.loc 1 39 0
 2946 0018 0D00A0E3 		mov	r0, #13
 2947 001c FEFFFFEB 		bl	ic_cleanflag
  40:../main.c     **** }
 2948              		.loc 1 40 0
 2949 0020 1CD04BE2 		sub	sp, fp, #28
 2950 0024 0F689DE8 		ldmfd	sp, {r0, r1, r2, r3, fp, sp, lr}
 2951 0028 04C09DE4 		ldmfd	sp!, {ip}
 2952 002c 04F05EE2 		subs	pc, lr, #4
 2953              		.cfi_endproc
 2954              	.LFE0:
 2956              		.align	2
 2957              		.global	button_ISR
 2959              	button_ISR:
 2960              	.LFB1:
  41:../main.c     **** 
  42:../main.c     **** void button_ISR(void)
  43:../main.c     **** {
 2961              		.loc 1 43 0
 2962              		.cfi_startproc
 2963              		@ Interrupt Service Routine.
 2964              		@ args = 0, pretend = 0, frame = 8
 2965              		@ frame_needed = 1, uses_anonymous_args = 0
 2966 0030 04C02DE5 		str	ip, [sp, #-4]!
 2967 0034 0DC0A0E1 		mov	ip, sp
 2968              	.LCFI2:
 2969              		.cfi_def_cfa_register 12
 2970 0038 0FD82DE9 		stmfd	sp!, {r0, r1, r2, r3, fp, ip, lr, pc}
 2971 003c 04B04CE2 		sub	fp, ip, #4
 2972              		.cfi_offset 14, -8
 2973              		.cfi_offset 13, -12
 2974              		.cfi_offset 11, -16
 2975              		.cfi_offset 3, -20
 2976              		.cfi_offset 2, -24
 2977              		.cfi_offset 1, -28
 2978              		.cfi_offset 0, -32
 2979              	.LCFI3:
 2980              		.cfi_def_cfa 11, 4
 2981 0040 08D04DE2 		sub	sp, sp, #8
  44:../main.c     **** 	unsigned int whicheint = rEXTINTPND;
 2982              		.loc 1 44 0
 2983 0044 80309FE5 		ldr	r3, .L5
 2984 0048 003093E5 		ldr	r3, [r3, #0]
 2985 004c 20300BE5 		str	r3, [fp, #-32]
  45:../main.c     **** 	unsigned int buttons = (whicheint >> 2) & 0x3;
 2986              		.loc 1 45 0
 2987 0050 20301BE5 		ldr	r3, [fp, #-32]
 2988 0054 2331A0E1 		mov	r3, r3, lsr #2
 2989 0058 033003E2 		and	r3, r3, #3
 2990 005c 24300BE5 		str	r3, [fp, #-36]
  46:../main.c     **** 
  47:../main.c     **** 	if (buttons & BUT1) {
  48:../main.c     **** 		//BUT1 pressed
  49:../main.c     **** 	}
  50:../main.c     **** 
  51:../main.c     **** 	if (buttons & BUT2) {
  52:../main.c     **** 		//BUT2 pressed
  53:../main.c     **** 	}
  54:../main.c     **** 
  55:../main.c     **** 	// eliminamos rebotes
  56:../main.c     **** 	Delay(2000);
 2991              		.loc 1 56 0
 2992 0060 7D0EA0E3 		mov	r0, #2000
 2993 0064 FEFFFFEB 		bl	Delay
  57:../main.c     **** 
  58:../main.c     **** 	// borramos el flag en extintpnd
  59:../main.c     **** 	//COMPLETAR: debemos borrar las peticiones de interrupci칩n en
  60:../main.c     **** 	//EXTINTPND escribiendo un 1 en los flags que queremos borrar (los
  61:../main.c     **** 	//correspondientes a los pulsadores pulsados)
  62:../main.c     **** 
  63:../main.c     **** 	if(buttons & BUT1)
 2994              		.loc 1 63 0
 2995 0068 24301BE5 		ldr	r3, [fp, #-36]
 2996 006c 013003E2 		and	r3, r3, #1
 2997 0070 FF3003E2 		and	r3, r3, #255
 2998 0074 000053E3 		cmp	r3, #0
 2999 0078 0400000A 		beq	.L3
  64:../main.c     **** 		//Borrar bit 2
  65:../main.c     **** 		rEXTINTPND |= 1 << 2;
 3000              		.loc 1 65 0
 3001 007c 48309FE5 		ldr	r3, .L5
 3002 0080 44209FE5 		ldr	r2, .L5
 3003 0084 002092E5 		ldr	r2, [r2, #0]
 3004 0088 042082E3 		orr	r2, r2, #4
 3005 008c 002083E5 		str	r2, [r3, #0]
 3006              	.L3:
  66:../main.c     **** 
  67:../main.c     **** 	if(buttons & BUT2)
 3007              		.loc 1 67 0
 3008 0090 24301BE5 		ldr	r3, [fp, #-36]
 3009 0094 023003E2 		and	r3, r3, #2
 3010 0098 000053E3 		cmp	r3, #0
 3011 009c 0400000A 		beq	.L4
  68:../main.c     **** 		//Borrar bit 3
  69:../main.c     **** 		rEXTINTPND |= 1 << 3;
 3012              		.loc 1 69 0
 3013 00a0 24309FE5 		ldr	r3, .L5
 3014 00a4 20209FE5 		ldr	r2, .L5
 3015 00a8 002092E5 		ldr	r2, [r2, #0]
 3016 00ac 082082E3 		orr	r2, r2, #8
 3017 00b0 002083E5 		str	r2, [r3, #0]
 3018              	.L4:
  70:../main.c     **** 
  71:../main.c     **** 	ic_cleanflag(INT_EINT4567);
 3019              		.loc 1 71 0
 3020 00b4 1500A0E3 		mov	r0, #21
 3021 00b8 FEFFFFEB 		bl	ic_cleanflag
  72:../main.c     **** }
 3022              		.loc 1 72 0
 3023 00bc 1CD04BE2 		sub	sp, fp, #28
 3024 00c0 0F689DE8 		ldmfd	sp, {r0, r1, r2, r3, fp, sp, lr}
 3025 00c4 04C09DE4 		ldmfd	sp!, {ip}
 3026 00c8 04F05EE2 		subs	pc, lr, #4
 3027              	.L6:
 3028              		.align	2
 3029              	.L5:
 3030 00cc 5400D201 		.word	30539860
 3031              		.cfi_endproc
 3032              	.LFE1:
 3034              		.align	2
 3035              		.global	keyboard_ISR
 3037              	keyboard_ISR:
 3038              	.LFB2:
  73:../main.c     **** 
  74:../main.c     **** void keyboard_ISR(void)
  75:../main.c     **** {
 3039              		.loc 1 75 0
 3040              		.cfi_startproc
 3041              		@ Interrupt Service Routine.
 3042              		@ args = 0, pretend = 0, frame = 8
 3043              		@ frame_needed = 1, uses_anonymous_args = 0
 3044 00d0 04C02DE5 		str	ip, [sp, #-4]!
 3045 00d4 0DC0A0E1 		mov	ip, sp
 3046              	.LCFI4:
 3047              		.cfi_def_cfa_register 12
 3048 00d8 0FD82DE9 		stmfd	sp!, {r0, r1, r2, r3, fp, ip, lr, pc}
 3049 00dc 04B04CE2 		sub	fp, ip, #4
 3050              		.cfi_offset 14, -8
 3051              		.cfi_offset 13, -12
 3052              		.cfi_offset 11, -16
 3053              		.cfi_offset 3, -20
 3054              		.cfi_offset 2, -24
 3055              		.cfi_offset 1, -28
 3056              		.cfi_offset 0, -32
 3057              	.LCFI5:
 3058              		.cfi_def_cfa 11, 4
 3059 00e0 08D04DE2 		sub	sp, sp, #8
  76:../main.c     **** 	static unsigned n = 0;
  77:../main.c     **** 	int key = -1;
 3060              		.loc 1 77 0
 3061 00e4 0030E0E3 		mvn	r3, #0
 3062 00e8 20300BE5 		str	r3, [fp, #-32]
  78:../main.c     **** 
  79:../main.c     **** 	/* Eliminar rebotes de presi칩n */
  80:../main.c     **** 	Delay(200);
 3063              		.loc 1 80 0
 3064 00ec C800A0E3 		mov	r0, #200
 3065 00f0 FEFFFFEB 		bl	Delay
  81:../main.c     **** 	
  82:../main.c     **** 	/* Escaneo de tecla */
  83:../main.c     **** 	key = kb_scan();
 3066              		.loc 1 83 0
 3067 00f4 FEFFFFEB 		bl	kb_scan
 3068 00f8 20000BE5 		str	r0, [fp, #-32]
  84:../main.c     **** 
  85:../main.c     **** 	n = (n+1) & 0xf;
 3069              		.loc 1 85 0
 3070 00fc 44309FE5 		ldr	r3, .L9
 3071 0100 003093E5 		ldr	r3, [r3, #0]
 3072 0104 013083E2 		add	r3, r3, #1
 3073 0108 0F2003E2 		and	r2, r3, #15
 3074 010c 34309FE5 		ldr	r3, .L9
 3075 0110 002083E5 		str	r2, [r3, #0]
  86:../main.c     **** 
  87:../main.c     **** 	if (key != -1) {
 3076              		.loc 1 87 0
 3077 0114 20301BE5 		ldr	r3, [fp, #-32]
 3078 0118 010073E3 		cmn	r3, #1
 3079 011c 0100000A 		beq	.L8
  88:../main.c     **** 		/* Visualizacion en el display */
  89:../main.c     **** 		//COMPLETAR: mostrar la tecla en el display utilizando el interfaz
  90:../main.c     **** 		//definido en D8Led.h
  91:../main.c     **** 
  92:../main.c     **** 		D8Led_digit(key);
 3080              		.loc 1 92 0
 3081 0120 20001BE5 		ldr	r0, [fp, #-32]
 3082 0124 FEFFFFEB 		bl	D8Led_digit
 3083              	.L8:
  93:../main.c     **** 		
  94:../main.c     **** 		/* Esperar a que la tecla se suelte, consultando el registro de datos */		
  95:../main.c     **** 		//while (/*COMPLETAR: true si est치 pulsada la tecla (leer del registro rPDATG)*/);
  96:../main.c     **** 	}
  97:../main.c     **** 
  98:../main.c     ****     /* Eliminar rebotes de depresi칩n */
  99:../main.c     ****     Delay(200);
 3084              		.loc 1 99 0
 3085 0128 C800A0E3 		mov	r0, #200
 3086 012c FEFFFFEB 		bl	Delay
 100:../main.c     ****      
 101:../main.c     ****     /* Borrar interrupciones pendientes */
 102:../main.c     **** 	//COMPLETAR
 103:../main.c     **** 	//borrar la interrupci칩n por la l칤nea EINT1 en el registro rI_ISPC
 104:../main.c     ****     ic_cleanflag(INT_EINT1);
 3087              		.loc 1 104 0
 3088 0130 1800A0E3 		mov	r0, #24
 3089 0134 FEFFFFEB 		bl	ic_cleanflag
 105:../main.c     **** }
 3090              		.loc 1 105 0
 3091 0138 1CD04BE2 		sub	sp, fp, #28
 3092 013c 0F689DE8 		ldmfd	sp, {r0, r1, r2, r3, fp, sp, lr}
 3093 0140 04C09DE4 		ldmfd	sp!, {ip}
 3094 0144 04F05EE2 		subs	pc, lr, #4
 3095              	.L10:
 3096              		.align	2
 3097              	.L9:
 3098 0148 10000000 		.word	n.5128
 3099              		.cfi_endproc
 3100              	.LFE2:
 3102              		.align	2
 3103              		.global	setup
 3105              	setup:
 3106              	.LFB3:
 106:../main.c     **** 
 107:../main.c     **** int setup(void)
 108:../main.c     **** {
 3107              		.loc 1 108 0
 3108              		.cfi_startproc
 3109              		@ Function supports interworking.
 3110              		@ args = 0, pretend = 0, frame = 0
 3111              		@ frame_needed = 1, uses_anonymous_args = 0
 3112 014c 0DC0A0E1 		mov	ip, sp
 3113              	.LCFI6:
 3114              		.cfi_def_cfa_register 12
 3115 0150 00D82DE9 		stmfd	sp!, {fp, ip, lr, pc}
 3116 0154 04B04CE2 		sub	fp, ip, #4
 3117              		.cfi_offset 14, -8
 3118              		.cfi_offset 13, -12
 3119              		.cfi_offset 11, -16
 3120              	.LCFI7:
 3121              		.cfi_def_cfa 11, 4
 109:../main.c     **** 	leds_init();
 3122              		.loc 1 109 0
 3123 0158 FEFFFFEB 		bl	leds_init
 110:../main.c     **** 	D8Led_init();
 3124              		.loc 1 110 0
 3125 015c FEFFFFEB 		bl	D8Led_init
 111:../main.c     **** 	D8Led_segment(0x02); // "-" Symbol
 3126              		.loc 1 111 0
 3127 0160 0200A0E3 		mov	r0, #2
 3128 0164 FEFFFFEB 		bl	D8Led_segment
 112:../main.c     **** 	led1_on();
 3129              		.loc 1 112 0
 3130 0168 FEFFFFEB 		bl	led1_on
 113:../main.c     **** 
 114:../main.c     **** 	/* Port G: configuraci칩n para generaci칩n de interrupciones externas,
 115:../main.c     **** 	 *         botones y teclado
 116:../main.c     **** 	 **/
 117:../main.c     **** 
 118:../main.c     **** 	//COMPLETAR: utilizando el interfaz para el puerto G definido en gpio.h
 119:../main.c     **** 	//configurar los pines 1, 6 y 7 del puerto G para poder generar interrupciones
 120:../main.c     **** 	//externas por flanco de bajada por ellos y activar las correspondientes
 121:../main.c     **** 	//resistencias de pull-up.
 122:../main.c     **** 
 123:../main.c     **** 	portG_conf(6, EINT);
 3131              		.loc 1 123 0
 3132 016c 0600A0E3 		mov	r0, #6
 3133 0170 0310A0E3 		mov	r1, #3
 3134 0174 FEFFFFEB 		bl	portG_conf
 124:../main.c     **** 	portG_eint_trig(6, FALLING);
 3135              		.loc 1 124 0
 3136 0178 0600A0E3 		mov	r0, #6
 3137 017c 0210A0E3 		mov	r1, #2
 3138 0180 FEFFFFEB 		bl	portG_eint_trig
 125:../main.c     **** 	portG_conf_pup(6, ENABLE);
 3139              		.loc 1 125 0
 3140 0184 0600A0E3 		mov	r0, #6
 3141 0188 0110A0E3 		mov	r1, #1
 3142 018c FEFFFFEB 		bl	portG_conf_pup
 126:../main.c     **** 
 127:../main.c     **** 	portG_conf(7, EINT);
 3143              		.loc 1 127 0
 3144 0190 0700A0E3 		mov	r0, #7
 3145 0194 0310A0E3 		mov	r1, #3
 3146 0198 FEFFFFEB 		bl	portG_conf
 128:../main.c     **** 	portG_eint_trig(7, FALLING);
 3147              		.loc 1 128 0
 3148 019c 0700A0E3 		mov	r0, #7
 3149 01a0 0210A0E3 		mov	r1, #2
 3150 01a4 FEFFFFEB 		bl	portG_eint_trig
 129:../main.c     **** 	portG_conf_pup(7, ENABLE);
 3151              		.loc 1 129 0
 3152 01a8 0700A0E3 		mov	r0, #7
 3153 01ac 0110A0E3 		mov	r1, #1
 3154 01b0 FEFFFFEB 		bl	portG_conf_pup
 130:../main.c     **** 
 131:../main.c     **** 	/********************************************************************/
 132:../main.c     **** 
 133:../main.c     **** 	/* Configuraci칩n del timer */
 134:../main.c     **** 
 135:../main.c     **** 	//TIMER0: 0.5 seconds
 136:../main.c     **** 	tmr_set_mode(TIMER0, RELOAD);
 3155              		.loc 1 136 0
 3156 01b4 0000A0E3 		mov	r0, #0
 3157 01b8 0110A0E3 		mov	r1, #1
 3158 01bc FEFFFFEB 		bl	tmr_set_mode
 137:../main.c     **** 	tmr_set_prescaler(TIMER0, 255);
 3159              		.loc 1 137 0
 3160 01c0 0000A0E3 		mov	r0, #0
 3161 01c4 FF10A0E3 		mov	r1, #255
 3162 01c8 FEFFFFEB 		bl	tmr_set_prescaler
 138:../main.c     **** 	tmr_set_divider(TIMER0, D1_8);
 3163              		.loc 1 138 0
 3164 01cc 0000A0E3 		mov	r0, #0
 3165 01d0 0210A0E3 		mov	r1, #2
 3166 01d4 FEFFFFEB 		bl	tmr_set_divider
 139:../main.c     **** 	tmr_set_count(TIMER0, 62500 >> 3, 1);
 3167              		.loc 1 139 0
 3168 01d8 0000A0E3 		mov	r0, #0
 3169 01dc A8109FE5 		ldr	r1, .L12
 3170 01e0 0120A0E3 		mov	r2, #1
 3171 01e4 FEFFFFEB 		bl	tmr_set_count
 140:../main.c     **** 
 141:../main.c     **** 	tmr_update(TIMER0);
 3172              		.loc 1 141 0
 3173 01e8 0000A0E3 		mov	r0, #0
 3174 01ec FEFFFFEB 		bl	tmr_update
 142:../main.c     **** 
 143:../main.c     **** 	//COMPLETAR: tomar el c칩digo de la segunda parte
 144:../main.c     **** 
 145:../main.c     **** 	tmr_start(TIMER0);
 3175              		.loc 1 145 0
 3176 01f0 0000A0E3 		mov	r0, #0
 3177 01f4 FEFFFFEB 		bl	tmr_start
 146:../main.c     **** 
 147:../main.c     **** 	//if (RL.moving)
 148:../main.c     **** 	//
 149:../main.c     **** 	/***************************/
 150:../main.c     **** 
 151:../main.c     **** 	// Registramos las ISRs
 152:../main.c     **** 	pISR_TIMER0 = (unsigned)timer_ISR;//COMPLETAR: registrar la RTI del timer
 3178              		.loc 1 152 0
 3179 01f8 90309FE5 		ldr	r3, .L12+4
 3180 01fc 90209FE5 		ldr	r2, .L12+8
 3181 0200 002083E5 		str	r2, [r3, #0]
 153:../main.c     **** 	pISR_EINT4567 = (unsigned)button_ISR; //COMPLETAR: registrar la RTI de los botones
 3182              		.loc 1 153 0
 3183 0204 8C309FE5 		ldr	r3, .L12+12
 3184 0208 8C209FE5 		ldr	r2, .L12+16
 3185 020c 002083E5 		str	r2, [r3, #0]
 154:../main.c     **** 	pISR_EINT1    = (unsigned)keyboard_ISR; //COMPLETAR: registrar la RTI del teclado
 3186              		.loc 1 154 0
 3187 0210 88309FE5 		ldr	r3, .L12+20
 3188 0214 88209FE5 		ldr	r2, .L12+24
 3189 0218 002083E5 		str	r2, [r3, #0]
 155:../main.c     **** 
 156:../main.c     **** 	/* Configuraci칩n del controlador de interrupciones
 157:../main.c     **** 	 * Habilitamos la l칤nea IRQ, en modo vectorizado 
 158:../main.c     **** 	 * Configuramos el timer 0 en modo IRQ y habilitamos esta l칤nea
 159:../main.c     **** 	 * Configuramos la l칤nea EINT4567 en modo IRQ y la habilitamos
 160:../main.c     **** 	 * Configuramos la l칤nea EINT1 en modo IRQ y la habilitamos
 161:../main.c     **** 	 */
 162:../main.c     **** 
 163:../main.c     **** 	uart0_init();
 3190              		.loc 1 163 0
 3191 021c FEFFFFEB 		bl	uart0_init
 164:../main.c     **** 	iic_init();
 3192              		.loc 1 164 0
 3193 0220 FEFFFFEB 		bl	iic_init
 165:../main.c     **** 	rtc_init();
 3194              		.loc 1 165 0
 3195 0224 FEFFFFEB 		bl	rtc_init
 166:../main.c     **** 	ic_init();
 3196              		.loc 1 166 0
 3197 0228 FEFFFFEB 		bl	ic_init
 167:../main.c     **** 
 168:../main.c     **** 	//COMPLETAR: utilizando el interfaz definido en intcontroller.h
 169:../main.c     **** 	//		habilitar la l칤nea IRQ en modo vectorizado
 170:../main.c     **** 	//		deshabilitar la l칤nea FIQ
 171:../main.c     **** 	//		configurar la l칤nea INT_TIMER0 en modo IRQ
 172:../main.c     **** 	//		configurar la l칤nea INT_EINT4567 en modo IRQ
 173:../main.c     **** 	//		configurar la l칤nea INT_EINT1 en modo IRQ
 174:../main.c     **** 	//		habilitar la l칤nea INT_TIMER0
 175:../main.c     **** 	//		habilitar la l칤nea INT_EINT4567
 176:../main.c     **** 	//		habilitar la l칤nea INT_EINT1
 177:../main.c     **** 
 178:../main.c     **** 	/***************************************************/
 179:../main.c     **** 
 180:../main.c     **** 	ic_conf_irq(ENABLE, VEC);
 3198              		.loc 1 180 0
 3199 022c 0100A0E3 		mov	r0, #1
 3200 0230 0010A0E3 		mov	r1, #0
 3201 0234 FEFFFFEB 		bl	ic_conf_irq
 181:../main.c     **** 	ic_conf_fiq(DISABLE);
 3202              		.loc 1 181 0
 3203 0238 0000A0E3 		mov	r0, #0
 3204 023c FEFFFFEB 		bl	ic_conf_fiq
 182:../main.c     **** 
 183:../main.c     **** 	ic_conf_line(INT_TIMER0, IRQ);
 3205              		.loc 1 183 0
 3206 0240 0D00A0E3 		mov	r0, #13
 3207 0244 0010A0E3 		mov	r1, #0
 3208 0248 FEFFFFEB 		bl	ic_conf_line
 184:../main.c     **** 	ic_conf_line(INT_EINT4567, IRQ);
 3209              		.loc 1 184 0
 3210 024c 1500A0E3 		mov	r0, #21
 3211 0250 0010A0E3 		mov	r1, #0
 3212 0254 FEFFFFEB 		bl	ic_conf_line
 185:../main.c     **** 	ic_conf_line(INT_EINT1, IRQ);
 3213              		.loc 1 185 0
 3214 0258 1800A0E3 		mov	r0, #24
 3215 025c 0010A0E3 		mov	r1, #0
 3216 0260 FEFFFFEB 		bl	ic_conf_line
 186:../main.c     **** 
 187:../main.c     **** 	//ic_enable(INT_TIMER0);
 188:../main.c     **** 	//ic_enable(INT_EINT4567);
 189:../main.c     **** 	//ic_enable(INT_EINT1);
 190:../main.c     **** 
 191:../main.c     **** 	ic_enable(INT_GLOBAL);
 3217              		.loc 1 191 0
 3218 0264 1A00A0E3 		mov	r0, #26
 3219 0268 FEFFFFEB 		bl	ic_enable
 192:../main.c     **** 
 193:../main.c     **** 	lcd_init();
 3220              		.loc 1 193 0
 3221 026c FEFFFFEB 		bl	lcd_init
 194:../main.c     **** 
 195:../main.c     **** 	Delay(0);
 3222              		.loc 1 195 0
 3223 0270 0000A0E3 		mov	r0, #0
 3224 0274 FEFFFFEB 		bl	Delay
 196:../main.c     **** 	return 0;
 3225              		.loc 1 196 0
 3226 0278 0030A0E3 		mov	r3, #0
 197:../main.c     **** }
 3227              		.loc 1 197 0
 3228 027c 0300A0E1 		mov	r0, r3
 3229 0280 0CD04BE2 		sub	sp, fp, #12
 3230 0284 00689DE8 		ldmfd	sp, {fp, sp, lr}
 3231 0288 1EFF2FE1 		bx	lr
 3232              	.L13:
 3233              		.align	2
 3234              	.L12:
 3235 028c 841E0000 		.word	7812
 3236 0290 54FF7F0C 		.word	209715028
 3237 0294 00000000 		.word	timer_ISR
 3238 0298 74FF7F0C 		.word	209715060
 3239 029c 00000000 		.word	button_ISR
 3240 02a0 80FF7F0C 		.word	209715072
 3241 02a4 00000000 		.word	keyboard_ISR
 3242              		.cfi_endproc
 3243              	.LFE3:
 3245              		.section	.rodata
 3246              		.align	2
 3247              	.LC0:
 3248 0000 0A446961 		.ascii	"\012Dia: \000"
 3248      3A2000
 3249 0007 00       		.align	2
 3250              	.LC1:
 3251 0008 0A4D6573 		.ascii	"\012Mes: \000"
 3251      3A2000
 3252 000f 00       		.align	2
 3253              	.LC2:
 3254 0010 0A41F16F 		.ascii	"\012A\361o: \000"
 3254      3A2000
 3255 0017 00       		.align	2
 3256              	.LC3:
 3257 0018 0A446961 		.ascii	"\012Dia de la semana: \000"
 3257      20646520 
 3257      6C612073 
 3257      656D616E 
 3257      613A2000 
 3258              		.align	2
 3259              	.LC4:
 3260 002c 0A486F72 		.ascii	"\012Hora: \000"
 3260      613A2000 
 3261              		.align	2
 3262              	.LC5:
 3263 0034 0A4D696E 		.ascii	"\012Minutos: \000"
 3263      75746F73 
 3263      3A2000
 3264 003f 00       		.align	2
 3265              	.LC6:
 3266 0040 0A536567 		.ascii	"\012Segundos: \000"
 3266      756E646F 
 3266      733A2000 
 3267              		.text
 3268              		.align	2
 3269              		.global	read_date
 3271              	read_date:
 3272              	.LFB4:
 198:../main.c     **** 
 199:../main.c     **** void read_date(rtc_time_t* rtc_time)
 200:../main.c     **** {
 3273              		.loc 1 200 0
 3274              		.cfi_startproc
 3275              		@ Function supports interworking.
 3276              		@ args = 0, pretend = 0, frame = 8
 3277              		@ frame_needed = 1, uses_anonymous_args = 0
 3278 02a8 0DC0A0E1 		mov	ip, sp
 3279              	.LCFI8:
 3280              		.cfi_def_cfa_register 12
 3281 02ac 00D82DE9 		stmfd	sp!, {fp, ip, lr, pc}
 3282 02b0 04B04CE2 		sub	fp, ip, #4
 3283              		.cfi_offset 14, -8
 3284              		.cfi_offset 13, -12
 3285              		.cfi_offset 11, -16
 3286              	.LCFI9:
 3287              		.cfi_def_cfa 11, 4
 3288 02b4 08D04DE2 		sub	sp, sp, #8
 3289 02b8 10000BE5 		str	r0, [fp, #-16]
 201:../main.c     **** 	uart0_puts( "\nDia: " );
 3290              		.loc 1 201 0
 3291 02bc C8009FE5 		ldr	r0, .L15
 3292 02c0 FEFFFFEB 		bl	uart0_puts
 202:../main.c     **** 	rtc_time->mday = uart0_getint();
 3293              		.loc 1 202 0
 3294 02c4 FEFFFFEB 		bl	uart0_getint
 3295 02c8 0030A0E1 		mov	r3, r0
 3296 02cc FF2003E2 		and	r2, r3, #255
 3297 02d0 10301BE5 		ldr	r3, [fp, #-16]
 3298 02d4 0320C3E5 		strb	r2, [r3, #3]
 203:../main.c     **** 	uart0_puts( "\nMes: " );
 3299              		.loc 1 203 0
 3300 02d8 B0009FE5 		ldr	r0, .L15+4
 3301 02dc FEFFFFEB 		bl	uart0_puts
 204:../main.c     **** 	rtc_time->mon = uart0_getint();
 3302              		.loc 1 204 0
 3303 02e0 FEFFFFEB 		bl	uart0_getint
 3304 02e4 0030A0E1 		mov	r3, r0
 3305 02e8 FF2003E2 		and	r2, r3, #255
 3306 02ec 10301BE5 		ldr	r3, [fp, #-16]
 3307 02f0 0520C3E5 		strb	r2, [r3, #5]
 205:../main.c     **** 	uart0_puts( "\nA絪: " );
 3308              		.loc 1 205 0
 3309 02f4 98009FE5 		ldr	r0, .L15+8
 3310 02f8 FEFFFFEB 		bl	uart0_puts
 206:../main.c     **** 	rtc_time->year = uart0_getint();
 3311              		.loc 1 206 0
 3312 02fc FEFFFFEB 		bl	uart0_getint
 3313 0300 0030A0E1 		mov	r3, r0
 3314 0304 FF2003E2 		and	r2, r3, #255
 3315 0308 10301BE5 		ldr	r3, [fp, #-16]
 3316 030c 0620C3E5 		strb	r2, [r3, #6]
 207:../main.c     **** 	uart0_puts( "\nDia de la semana: " );
 3317              		.loc 1 207 0
 3318 0310 80009FE5 		ldr	r0, .L15+12
 3319 0314 FEFFFFEB 		bl	uart0_puts
 208:../main.c     **** 	rtc_time->wday = uart0_getint();
 3320              		.loc 1 208 0
 3321 0318 FEFFFFEB 		bl	uart0_getint
 3322 031c 0030A0E1 		mov	r3, r0
 3323 0320 FF2003E2 		and	r2, r3, #255
 3324 0324 10301BE5 		ldr	r3, [fp, #-16]
 3325 0328 0420C3E5 		strb	r2, [r3, #4]
 209:../main.c     **** 
 210:../main.c     **** 	uart0_puts( "\nHora: " );
 3326              		.loc 1 210 0
 3327 032c 68009FE5 		ldr	r0, .L15+16
 3328 0330 FEFFFFEB 		bl	uart0_puts
 211:../main.c     **** 	rtc_time->hour = uart0_getint();
 3329              		.loc 1 211 0
 3330 0334 FEFFFFEB 		bl	uart0_getint
 3331 0338 0030A0E1 		mov	r3, r0
 3332 033c FF2003E2 		and	r2, r3, #255
 3333 0340 10301BE5 		ldr	r3, [fp, #-16]
 3334 0344 0220C3E5 		strb	r2, [r3, #2]
 212:../main.c     **** 	uart0_puts( "\nMinutos: " );
 3335              		.loc 1 212 0
 3336 0348 50009FE5 		ldr	r0, .L15+20
 3337 034c FEFFFFEB 		bl	uart0_puts
 213:../main.c     **** 	rtc_time->min = uart0_getint();
 3338              		.loc 1 213 0
 3339 0350 FEFFFFEB 		bl	uart0_getint
 3340 0354 0030A0E1 		mov	r3, r0
 3341 0358 FF2003E2 		and	r2, r3, #255
 3342 035c 10301BE5 		ldr	r3, [fp, #-16]
 3343 0360 0120C3E5 		strb	r2, [r3, #1]
 214:../main.c     **** 	uart0_puts( "\nSegundos: " );
 3344              		.loc 1 214 0
 3345 0364 38009FE5 		ldr	r0, .L15+24
 3346 0368 FEFFFFEB 		bl	uart0_puts
 215:../main.c     **** 	rtc_time->sec = uart0_getint();
 3347              		.loc 1 215 0
 3348 036c FEFFFFEB 		bl	uart0_getint
 3349 0370 0030A0E1 		mov	r3, r0
 3350 0374 FF2003E2 		and	r2, r3, #255
 3351 0378 10301BE5 		ldr	r3, [fp, #-16]
 3352 037c 0020C3E5 		strb	r2, [r3, #0]
 216:../main.c     **** }
 3353              		.loc 1 216 0
 3354 0380 0CD04BE2 		sub	sp, fp, #12
 3355 0384 00689DE8 		ldmfd	sp, {fp, sp, lr}
 3356 0388 1EFF2FE1 		bx	lr
 3357              	.L16:
 3358              		.align	2
 3359              	.L15:
 3360 038c 00000000 		.word	.LC0
 3361 0390 08000000 		.word	.LC1
 3362 0394 10000000 		.word	.LC2
 3363 0398 18000000 		.word	.LC3
 3364 039c 2C000000 		.word	.LC4
 3365 03a0 34000000 		.word	.LC5
 3366 03a4 40000000 		.word	.LC6
 3367              		.cfi_endproc
 3368              	.LFE4:
 3370              		.align	2
 3371              		.global	rtc_ISR
 3373              	rtc_ISR:
 3374              	.LFB5:
 217:../main.c     **** 
 218:../main.c     **** void rtc_ISR() {
 3375              		.loc 1 218 0
 3376              		.cfi_startproc
 3377              		@ Interrupt Service Routine.
 3378              		@ args = 0, pretend = 0, frame = 0
 3379              		@ frame_needed = 1, uses_anonymous_args = 0
 3380 03a8 04C02DE5 		str	ip, [sp, #-4]!
 3381 03ac 0DC0A0E1 		mov	ip, sp
 3382              	.LCFI10:
 3383              		.cfi_def_cfa_register 12
 3384 03b0 0FD82DE9 		stmfd	sp!, {r0, r1, r2, r3, fp, ip, lr, pc}
 3385 03b4 04B04CE2 		sub	fp, ip, #4
 3386              		.cfi_offset 14, -8
 3387              		.cfi_offset 13, -12
 3388              		.cfi_offset 11, -16
 3389              		.cfi_offset 3, -20
 3390              		.cfi_offset 2, -24
 3391              		.cfi_offset 1, -28
 3392              		.cfi_offset 0, -32
 3393              	.LCFI11:
 3394              		.cfi_def_cfa 11, 4
 219:../main.c     **** 	static rtc_time_t rtc_time;
 220:../main.c     **** 
 221:../main.c     **** 	rtc_gettime(&rtc_time);
 3395              		.loc 1 221 0
 3396 03b8 28009FE5 		ldr	r0, .L18
 3397 03bc FEFFFFEB 		bl	rtc_gettime
 222:../main.c     **** 	uart0_put_rtc_time(&rtc_time);
 3398              		.loc 1 222 0
 3399 03c0 20009FE5 		ldr	r0, .L18
 3400 03c4 FEFFFFEB 		bl	uart0_put_rtc_time
 223:../main.c     **** 	uart0_putchar('\n');
 3401              		.loc 1 223 0
 3402 03c8 0A00A0E3 		mov	r0, #10
 3403 03cc FEFFFFEB 		bl	uart0_putchar
 224:../main.c     **** 
 225:../main.c     **** 	ic_cleanflag(INT_TICK);
 3404              		.loc 1 225 0
 3405 03d0 1400A0E3 		mov	r0, #20
 3406 03d4 FEFFFFEB 		bl	ic_cleanflag
 226:../main.c     **** }
 3407              		.loc 1 226 0
 3408 03d8 1CD04BE2 		sub	sp, fp, #28
 3409 03dc 0F689DE8 		ldmfd	sp, {r0, r1, r2, r3, fp, sp, lr}
 3410 03e0 04C09DE4 		ldmfd	sp!, {ip}
 3411 03e4 04F05EE2 		subs	pc, lr, #4
 3412              	.L19:
 3413              		.align	2
 3414              	.L18:
 3415 03e8 08000000 		.word	rtc_time.5138
 3416              		.cfi_endproc
 3417              	.LFE5:
 3419              		.section	.rodata
 3420              		.align	2
 3421              	.LC7:
 3422 004c 0A414C41 		.ascii	"\012ALARM GOES OFF!\012\000"
 3422      524D2047 
 3422      4F455320 
 3422      4F464621 
 3422      0A00
 3423              		.text
 3424              		.align	2
 3425              		.global	rtc_alarm_ISR
 3427              	rtc_alarm_ISR:
 3428              	.LFB6:
 227:../main.c     **** 
 228:../main.c     **** void rtc_alarm_ISR(void) {
 3429              		.loc 1 228 0
 3430              		.cfi_startproc
 3431              		@ Interrupt Service Routine.
 3432              		@ args = 0, pretend = 0, frame = 0
 3433              		@ frame_needed = 1, uses_anonymous_args = 0
 3434 03ec 04C02DE5 		str	ip, [sp, #-4]!
 3435 03f0 0DC0A0E1 		mov	ip, sp
 3436              	.LCFI12:
 3437              		.cfi_def_cfa_register 12
 3438 03f4 0FD82DE9 		stmfd	sp!, {r0, r1, r2, r3, fp, ip, lr, pc}
 3439 03f8 04B04CE2 		sub	fp, ip, #4
 3440              		.cfi_offset 14, -8
 3441              		.cfi_offset 13, -12
 3442              		.cfi_offset 11, -16
 3443              		.cfi_offset 3, -20
 3444              		.cfi_offset 2, -24
 3445              		.cfi_offset 1, -28
 3446              		.cfi_offset 0, -32
 3447              	.LCFI13:
 3448              		.cfi_def_cfa 11, 4
 229:../main.c     **** 	uart0_puts("\nALARM GOES OFF!\n");
 3449              		.loc 1 229 0
 3450 03fc 18009FE5 		ldr	r0, .L21
 3451 0400 FEFFFFEB 		bl	uart0_puts
 230:../main.c     **** 	ic_cleanflag(INT_RTC);
 3452              		.loc 1 230 0
 3453 0404 0100A0E3 		mov	r0, #1
 3454 0408 FEFFFFEB 		bl	ic_cleanflag
 231:../main.c     **** }
 3455              		.loc 1 231 0
 3456 040c 1CD04BE2 		sub	sp, fp, #28
 3457 0410 0F689DE8 		ldmfd	sp, {r0, r1, r2, r3, fp, sp, lr}
 3458 0414 04C09DE4 		ldmfd	sp!, {ip}
 3459 0418 04F05EE2 		subs	pc, lr, #4
 3460              	.L22:
 3461              		.align	2
 3462              	.L21:
 3463 041c 4C000000 		.word	.LC7
 3464              		.cfi_endproc
 3465              	.LFE6:
 3467              		.section	.rodata
 3468 005e 0000     		.align	2
 3469              	.LC8:
 3470 0060 496E6974 		.ascii	"Initial time: \012\000"
 3470      69616C20 
 3470      74696D65 
 3470      3A200A00 
 3471              		.align	2
 3472              	.LC9:
 3473 0070 416C6172 		.ascii	"Alarm time: \000"
 3473      6D207469 
 3473      6D653A20 
 3473      00
 3474              		.text
 3475              		.align	2
 3476              		.global	clock_setup
 3478              	clock_setup:
 3479              	.LFB7:
 232:../main.c     **** 
 233:../main.c     **** void clock_setup() {
 3480              		.loc 1 233 0
 3481              		.cfi_startproc
 3482              		@ Function supports interworking.
 3483              		@ args = 0, pretend = 0, frame = 0
 3484              		@ frame_needed = 1, uses_anonymous_args = 0
 3485 0420 0DC0A0E1 		mov	ip, sp
 3486              	.LCFI14:
 3487              		.cfi_def_cfa_register 12
 3488 0424 00D82DE9 		stmfd	sp!, {fp, ip, lr, pc}
 3489 0428 04B04CE2 		sub	fp, ip, #4
 3490              		.cfi_offset 14, -8
 3491              		.cfi_offset 13, -12
 3492              		.cfi_offset 11, -16
 3493              	.LCFI15:
 3494              		.cfi_def_cfa 11, 4
 234:../main.c     **** 	static rtc_time_t rtc_time;
 235:../main.c     **** 	uart0_puts("Initial time: \n");
 3495              		.loc 1 235 0
 3496 042c 28019FE5 		ldr	r0, .L27
 3497 0430 FEFFFFEB 		bl	uart0_puts
 236:../main.c     **** 	rtc_gettime(&rtc_time);
 3498              		.loc 1 236 0
 3499 0434 24019FE5 		ldr	r0, .L27+4
 3500 0438 FEFFFFEB 		bl	rtc_gettime
 237:../main.c     **** 	uart0_put_rtc_time(&rtc_time);
 3501              		.loc 1 237 0
 3502 043c 1C019FE5 		ldr	r0, .L27+4
 3503 0440 FEFFFFEB 		bl	uart0_put_rtc_time
 238:../main.c     **** 
 239:../main.c     **** 	//Ask for time first time
 240:../main.c     **** 	read_date(&rtc_time);
 3504              		.loc 1 240 0
 3505 0444 14019FE5 		ldr	r0, .L27+4
 3506 0448 FEFFFFEB 		bl	read_date
 241:../main.c     **** 	rtc_puttime(&rtc_time);
 3507              		.loc 1 241 0
 3508 044c 0C019FE5 		ldr	r0, .L27+4
 3509 0450 FEFFFFEB 		bl	rtc_puttime
 242:../main.c     **** 
 243:../main.c     **** 	//Set alarm 10 seconds from now (imperfect but enough)
 244:../main.c     **** 
 245:../main.c     **** 	rtc_time.sec += 10;
 3510              		.loc 1 245 0
 3511 0454 04319FE5 		ldr	r3, .L27+4
 3512 0458 0030D3E5 		ldrb	r3, [r3, #0]	@ zero_extendqisi2
 3513 045c 0A3083E2 		add	r3, r3, #10
 3514 0460 FF2003E2 		and	r2, r3, #255
 3515 0464 F4309FE5 		ldr	r3, .L27+4
 3516 0468 0020C3E5 		strb	r2, [r3, #0]
 246:../main.c     **** 	if(rtc_time.sec >= 60) {
 3517              		.loc 1 246 0
 3518 046c EC309FE5 		ldr	r3, .L27+4
 3519 0470 0030D3E5 		ldrb	r3, [r3, #0]	@ zero_extendqisi2
 3520 0474 3B0053E3 		cmp	r3, #59
 3521 0478 0B00009A 		bls	.L24
 247:../main.c     **** 		rtc_time.sec -= 60;
 3522              		.loc 1 247 0
 3523 047c DC309FE5 		ldr	r3, .L27+4
 3524 0480 0030D3E5 		ldrb	r3, [r3, #0]	@ zero_extendqisi2
 3525 0484 3C3043E2 		sub	r3, r3, #60
 3526 0488 FF2003E2 		and	r2, r3, #255
 3527 048c CC309FE5 		ldr	r3, .L27+4
 3528 0490 0020C3E5 		strb	r2, [r3, #0]
 248:../main.c     **** 		rtc_time.min++;
 3529              		.loc 1 248 0
 3530 0494 C4309FE5 		ldr	r3, .L27+4
 3531 0498 0130D3E5 		ldrb	r3, [r3, #1]	@ zero_extendqisi2
 3532 049c 013083E2 		add	r3, r3, #1
 3533 04a0 FF2003E2 		and	r2, r3, #255
 3534 04a4 B4309FE5 		ldr	r3, .L27+4
 3535 04a8 0120C3E5 		strb	r2, [r3, #1]
 3536              	.L24:
 249:../main.c     **** 	}
 250:../main.c     **** 
 251:../main.c     **** 	if(rtc_time.min >= 60) {
 3537              		.loc 1 251 0
 3538 04ac AC309FE5 		ldr	r3, .L27+4
 3539 04b0 0130D3E5 		ldrb	r3, [r3, #1]	@ zero_extendqisi2
 3540 04b4 3B0053E3 		cmp	r3, #59
 3541 04b8 0B00009A 		bls	.L25
 252:../main.c     **** 		rtc_time.min -= 60;
 3542              		.loc 1 252 0
 3543 04bc 9C309FE5 		ldr	r3, .L27+4
 3544 04c0 0130D3E5 		ldrb	r3, [r3, #1]	@ zero_extendqisi2
 3545 04c4 3C3043E2 		sub	r3, r3, #60
 3546 04c8 FF2003E2 		and	r2, r3, #255
 3547 04cc 8C309FE5 		ldr	r3, .L27+4
 3548 04d0 0120C3E5 		strb	r2, [r3, #1]
 253:../main.c     **** 		rtc_time.hour++;
 3549              		.loc 1 253 0
 3550 04d4 84309FE5 		ldr	r3, .L27+4
 3551 04d8 0230D3E5 		ldrb	r3, [r3, #2]	@ zero_extendqisi2
 3552 04dc 013083E2 		add	r3, r3, #1
 3553 04e0 FF2003E2 		and	r2, r3, #255
 3554 04e4 74309FE5 		ldr	r3, .L27+4
 3555 04e8 0220C3E5 		strb	r2, [r3, #2]
 3556              	.L25:
 254:../main.c     **** 	}
 255:../main.c     **** 
 256:../main.c     **** 	if(rtc_time.hour >= 24) {
 3557              		.loc 1 256 0
 3558 04ec 6C309FE5 		ldr	r3, .L27+4
 3559 04f0 0230D3E5 		ldrb	r3, [r3, #2]	@ zero_extendqisi2
 3560 04f4 170053E3 		cmp	r3, #23
 3561 04f8 0B00009A 		bls	.L26
 257:../main.c     **** 		rtc_time.hour--;
 3562              		.loc 1 257 0
 3563 04fc 5C309FE5 		ldr	r3, .L27+4
 3564 0500 0230D3E5 		ldrb	r3, [r3, #2]	@ zero_extendqisi2
 3565 0504 013043E2 		sub	r3, r3, #1
 3566 0508 FF2003E2 		and	r2, r3, #255
 3567 050c 4C309FE5 		ldr	r3, .L27+4
 3568 0510 0220C3E5 		strb	r2, [r3, #2]
 258:../main.c     **** 		rtc_time.mday++;
 3569              		.loc 1 258 0
 3570 0514 44309FE5 		ldr	r3, .L27+4
 3571 0518 0330D3E5 		ldrb	r3, [r3, #3]	@ zero_extendqisi2
 3572 051c 013083E2 		add	r3, r3, #1
 3573 0520 FF2003E2 		and	r2, r3, #255
 3574 0524 34309FE5 		ldr	r3, .L27+4
 3575 0528 0320C3E5 		strb	r2, [r3, #3]
 3576              	.L26:
 259:../main.c     **** 	}
 260:../main.c     **** 
 261:../main.c     **** 	uart0_puts("Alarm time: ");
 3577              		.loc 1 261 0
 3578 052c 30009FE5 		ldr	r0, .L27+8
 3579 0530 FEFFFFEB 		bl	uart0_puts
 262:../main.c     **** 	uart0_put_rtc_time(&rtc_time);
 3580              		.loc 1 262 0
 3581 0534 24009FE5 		ldr	r0, .L27+4
 3582 0538 FEFFFFEB 		bl	uart0_put_rtc_time
 263:../main.c     **** 	uart0_putchar('\n');
 3583              		.loc 1 263 0
 3584 053c 0A00A0E3 		mov	r0, #10
 3585 0540 FEFFFFEB 		bl	uart0_putchar
 264:../main.c     **** 
 265:../main.c     **** 	rtc_set_alarm(rtc_alarm_ISR, &rtc_time);
 3586              		.loc 1 265 0
 3587 0544 1C009FE5 		ldr	r0, .L27+12
 3588 0548 10109FE5 		ldr	r1, .L27+4
 3589 054c FEFFFFEB 		bl	rtc_set_alarm
 266:../main.c     **** }
 3590              		.loc 1 266 0
 3591 0550 0CD04BE2 		sub	sp, fp, #12
 3592 0554 00689DE8 		ldmfd	sp, {fp, sp, lr}
 3593 0558 1EFF2FE1 		bx	lr
 3594              	.L28:
 3595              		.align	2
 3596              	.L27:
 3597 055c 60000000 		.word	.LC8
 3598 0560 00000000 		.word	rtc_time.5144
 3599 0564 70000000 		.word	.LC9
 3600 0568 00000000 		.word	rtc_alarm_ISR
 3601              		.cfi_endproc
 3602              	.LFE7:
 3604              		.section	.rodata
 3605 007d 000000   		.align	2
 3606              	.LC10:
 3607 0080 0A0A4361 		.ascii	"\012\012Cargando en RAM el contenido de IIC-EEPROM "
 3607      7267616E 
 3607      646F2065 
 3607      6E205241 
 3607      4D20656C 
 3608 00ad 41543234 		.ascii	"AT24C04:\012\000"
 3608      4330343A 
 3608      0A00
 3609 00b7 00       		.align	2
 3610              	.LC11:
 3611 00b8 202D204C 		.ascii	" - Lectura aleatoria (\000"
 3611      65637475 
 3611      72612061 
 3611      6C656174 
 3611      6F726961 
 3612 00cf 00       		.align	2
 3613              	.LC12:
 3614 00d0 20627974 		.ascii	" bytes)\012\000"
 3614      6573290A 
 3614      00
 3615 00d9 000000   		.align	2
 3616              	.LC13:
 3617 00dc 202D204C 		.ascii	" - Lectura secuencial (\000"
 3617      65637475 
 3617      72612073 
 3617      65637565 
 3617      6E636961 
 3618              		.align	2
 3619              	.LC14:
 3620 00f4 20627974 		.ascii	" bytes)\000"
 3620      65732900 
 3621              		.align	2
 3622              	.LC15:
 3623 00fc 4552524F 		.ascii	"ERROR: lectura aleatoria y secuencial no son coinci"
 3623      523A206C 
 3623      65637475 
 3623      72612061 
 3623      6C656174 
 3624 012f 64656E74 		.ascii	"dentes\012\000"
 3624      65730A00 
 3625 0137 00       		.align	2
 3626              	.LC16:
 3627 0138 0A566F6C 		.ascii	"\012Volcado del contenido inicial de la memoria IIC"
 3627      6361646F 
 3627      2064656C 
 3627      20636F6E 
 3627      74656E69 
 3628 0168 2D454550 		.ascii	"-EEPROM AT24C04:\012\000"
 3628      524F4D20 
 3628      41543234 
 3628      4330343A 
 3628      0A00
 3629 017a 0000     		.align	2
 3630              	.LC17:
 3631 017c 0A00     		.ascii	"\012\000"
 3632 017e 0000     		.align	2
 3633              	.LC18:
 3634 0180 303000   		.ascii	"00\000"
 3635 0183 00       		.align	2
 3636              	.LC19:
 3637 0184 683A00   		.ascii	"h:\000"
 3638 0187 00       		.align	2
 3639              	.LC20:
 3640 0188 203B2000 		.ascii	" ; \000"
 3641              		.align	2
 3642              	.LC21:
 3643 018c 0A0A4D6F 		.ascii	"\012\012Modificacion del contenido de la memoria II"
 3643      64696669 
 3643      63616369 
 3643      6F6E2064 
 3643      656C2063 
 3644 01b9 432D4545 		.ascii	"C-EEPROM AT24C04:\012\000"
 3644      50524F4D 
 3644      20415432 
 3644      34433034 
 3644      3A0A00
 3645              		.align	2
 3646              	.LC22:
 3647 01cc 20202D20 		.ascii	"  - Introduzca una direccion (0h-1ffh): \000"
 3647      496E7472 
 3647      6F64757A 
 3647      63612075 
 3647      6E612064 
 3648 01f5 000000   		.align	2
 3649              	.LC23:
 3650 01f8 20202D20 		.ascii	"  - Introduzca el dato (0h-ffh): \000"
 3650      496E7472 
 3650      6F64757A 
 3650      63612065 
 3650      6C206461 
 3651 021a 0000     		.align	2
 3652              	.LC24:
 3653 021c 0A566F6C 		.ascii	"\012Volcando en la IIC-EEPROM AT24C04 el contenido "
 3653      63616E64 
 3653      6F20656E 
 3653      206C6120 
 3653      4949432D 
 3654 024c 6465206C 		.ascii	"de la RAM:\012\000"
 3654      61205241 
 3654      4D3A0A00 
 3655              		.align	2
 3656              	.LC25:
 3657 0258 202D2045 		.ascii	" - Escritura aleatoria (\000"
 3657      73637269 
 3657      74757261 
 3657      20616C65 
 3657      61746F72 
 3658 0271 000000   		.align	2
 3659              	.LC26:
 3660 0274 4552524F 		.ascii	"ERROR: La escritura aleatoria falla.\012\000"
 3660      523A204C 
 3660      61206573 
 3660      63726974 
 3660      75726120 
 3661 029a 0000     		.align	2
 3662              	.LC27:
 3663 029c 202D2045 		.ascii	" - Escritura secuencial (\000"
 3663      73637269 
 3663      74757261 
 3663      20736563 
 3663      75656E63 
 3664 02b6 0000     		.align	2
 3665              	.LC28:
 3666 02b8 4552524F 		.ascii	"ERROR: La escritura secuencial falla.\012\000"
 3666      523A204C 
 3666      61206573 
 3666      63726974 
 3666      75726120 
 3667 02df 00       		.align	2
 3668              	.LC29:
 3669 02e0 0A417061 		.ascii	"\012Apague la placa y vuelva a cargar y ejecutar el"
 3669      67756520 
 3669      6C612070 
 3669      6C616361 
 3669      20792076 
 3670 0310 2070726F 		.ascii	" programa.\012\000"
 3670      6772616D 
 3670      612E0A00 
 3671              		.text
 3672              		.align	2
 3673              		.global	startup
 3675              	startup:
 3676              	.LFB8:
 267:../main.c     **** 
 268:../main.c     **** void startup() {
 3677              		.loc 1 268 0
 3678              		.cfi_startproc
 3679              		@ Function supports interworking.
 3680              		@ args = 0, pretend = 0, frame = 1040
 3681              		@ frame_needed = 1, uses_anonymous_args = 0
 3682 056c 0DC0A0E1 		mov	ip, sp
 3683              	.LCFI16:
 3684              		.cfi_def_cfa_register 12
 3685 0570 00D82DE9 		stmfd	sp!, {fp, ip, lr, pc}
 3686 0574 04B04CE2 		sub	fp, ip, #4
 3687              		.cfi_offset 14, -8
 3688              		.cfi_offset 13, -12
 3689              		.cfi_offset 11, -16
 3690              	.LCFI17:
 3691              		.cfi_def_cfa 11, 4
 3692 0578 41DE4DE2 		sub	sp, sp, #1040
 269:../main.c     ****     uint8 buffer[AT24C04_DEPTH], buffer_aux[AT24C04_DEPTH];
 270:../main.c     ****     uint16 i, j, delay;
 271:../main.c     ****     uint32 addr, data;
 272:../main.c     **** 
 273:../main.c     **** 	uart0_puts( "\n\nCargando en RAM el contenido de IIC-EEPROM AT24C04:\n" );
 3693              		.loc 1 273 0
 3694 057c B8049FE5 		ldr	r0, .L56
 3695 0580 FEFFFFEB 		bl	uart0_puts
 274:../main.c     **** 
 275:../main.c     **** 	/************************************/
 276:../main.c     **** 
 277:../main.c     **** 	for( i=0; i<AT24C04_DEPTH; i++ )
 3696              		.loc 1 277 0
 3697 0584 0030A0E3 		mov	r3, #0
 3698 0588 BE304BE1 		strh	r3, [fp, #-14]	@ movhi
 3699 058c 090000EA 		b	.L30
 3700              	.L31:
 278:../main.c     **** 		at24c04_byteread( i, &buffer[i] );
 3701              		.loc 1 278 0 discriminator 2
 3702 0590 BE305BE1 		ldrh	r3, [fp, #-14]
 3703 0594 862F4BE2 		sub	r2, fp, #536
 3704 0598 033082E0 		add	r3, r2, r3
 3705 059c BE205BE1 		ldrh	r2, [fp, #-14]
 3706 05a0 0200A0E1 		mov	r0, r2
 3707 05a4 0310A0E1 		mov	r1, r3
 3708 05a8 FEFFFFEB 		bl	at24c04_byteread
 277:../main.c     **** 	for( i=0; i<AT24C04_DEPTH; i++ )
 3709              		.loc 1 277 0 discriminator 2
 3710 05ac BE305BE1 		ldrh	r3, [fp, #-14]	@ movhi
 3711 05b0 013083E2 		add	r3, r3, #1
 3712 05b4 BE304BE1 		strh	r3, [fp, #-14]	@ movhi
 3713              	.L30:
 277:../main.c     **** 	for( i=0; i<AT24C04_DEPTH; i++ )
 3714              		.loc 1 277 0 is_stmt 0 discriminator 1
 3715 05b8 BE205BE1 		ldrh	r2, [fp, #-14]
 3716 05bc 7C349FE5 		ldr	r3, .L56+4
 3717 05c0 030052E1 		cmp	r2, r3
 3718 05c4 F1FFFF9A 		bls	.L31
 279:../main.c     **** 	uart0_puts( " - Lectura aleatoria (" );
 3719              		.loc 1 279 0 is_stmt 1
 3720 05c8 74049FE5 		ldr	r0, .L56+8
 3721 05cc FEFFFFEB 		bl	uart0_puts
 280:../main.c     **** 	uart0_putint( AT24C04_DEPTH );
 3722              		.loc 1 280 0
 3723 05d0 020CA0E3 		mov	r0, #512
 3724 05d4 FEFFFFEB 		bl	uart0_putint
 281:../main.c     **** 	uart0_puts( " bytes)\n" );
 3725              		.loc 1 281 0
 3726 05d8 68049FE5 		ldr	r0, .L56+12
 3727 05dc FEFFFFEB 		bl	uart0_puts
 282:../main.c     **** 
 283:../main.c     **** 	/************************************/
 284:../main.c     **** 	at24c04_load( buffer_aux );
 3728              		.loc 1 284 0
 3729 05e0 013B4BE2 		sub	r3, fp, #1024
 3730 05e4 0C3043E2 		sub	r3, r3, #12
 3731 05e8 0C3043E2 		sub	r3, r3, #12
 3732 05ec 0300A0E1 		mov	r0, r3
 3733 05f0 FEFFFFEB 		bl	at24c04_load
 285:../main.c     **** 	uart0_puts( " - Lectura secuencial (" );
 3734              		.loc 1 285 0
 3735 05f4 50049FE5 		ldr	r0, .L56+16
 3736 05f8 FEFFFFEB 		bl	uart0_puts
 286:../main.c     **** 	uart0_putint( AT24C04_DEPTH );
 3737              		.loc 1 286 0
 3738 05fc 020CA0E3 		mov	r0, #512
 3739 0600 FEFFFFEB 		bl	uart0_putint
 287:../main.c     **** 	uart0_puts( " bytes)" );
 3740              		.loc 1 287 0
 3741 0604 44049FE5 		ldr	r0, .L56+20
 3742 0608 FEFFFFEB 		bl	uart0_puts
 288:../main.c     **** 
 289:../main.c     **** 	/************************************/
 290:../main.c     **** 
 291:../main.c     **** 	for( i=0; i<AT24C04_DEPTH; i++ )
 3743              		.loc 1 291 0
 3744 060c 0030A0E3 		mov	r3, #0
 3745 0610 BE304BE1 		strh	r3, [fp, #-14]	@ movhi
 3746 0614 120000EA 		b	.L32
 3747              	.L34:
 292:../main.c     **** 		if( buffer[i] != buffer_aux[i] )
 3748              		.loc 1 292 0
 3749 0618 BE205BE1 		ldrh	r2, [fp, #-14]
 3750 061c 30349FE5 		ldr	r3, .L56+24
 3751 0620 0C004BE2 		sub	r0, fp, #12
 3752 0624 022080E0 		add	r2, r0, r2
 3753 0628 033082E0 		add	r3, r2, r3
 3754 062c 0020D3E5 		ldrb	r2, [r3, #0]	@ zero_extendqisi2
 3755 0630 BE105BE1 		ldrh	r1, [fp, #-14]
 3756 0634 1C349FE5 		ldr	r3, .L56+28
 3757 0638 0C004BE2 		sub	r0, fp, #12
 3758 063c 011080E0 		add	r1, r0, r1
 3759 0640 033081E0 		add	r3, r1, r3
 3760 0644 0030D3E5 		ldrb	r3, [r3, #0]	@ zero_extendqisi2
 3761 0648 030052E1 		cmp	r2, r3
 3762 064c 0100000A 		beq	.L33
 293:../main.c     **** 			uart0_puts( "ERROR: lectura aleatoria y secuencial no son coincidentes\n" );
 3763              		.loc 1 293 0
 3764 0650 04049FE5 		ldr	r0, .L56+32
 3765 0654 FEFFFFEB 		bl	uart0_puts
 3766              	.L33:
 291:../main.c     **** 	for( i=0; i<AT24C04_DEPTH; i++ )
 3767              		.loc 1 291 0
 3768 0658 BE305BE1 		ldrh	r3, [fp, #-14]	@ movhi
 3769 065c 013083E2 		add	r3, r3, #1
 3770 0660 BE304BE1 		strh	r3, [fp, #-14]	@ movhi
 3771              	.L32:
 291:../main.c     **** 	for( i=0; i<AT24C04_DEPTH; i++ )
 3772              		.loc 1 291 0 is_stmt 0 discriminator 1
 3773 0664 BE205BE1 		ldrh	r2, [fp, #-14]
 3774 0668 D0339FE5 		ldr	r3, .L56+4
 3775 066c 030052E1 		cmp	r2, r3
 3776 0670 E8FFFF9A 		bls	.L34
 294:../main.c     **** 
 295:../main.c     **** 	/************************************/
 296:../main.c     **** 
 297:../main.c     **** 	uart0_puts( "\nVolcado del contenido inicial de la memoria IIC-EEPROM AT24C04:\n" );
 3777              		.loc 1 297 0 is_stmt 1
 3778 0674 E4039FE5 		ldr	r0, .L56+36
 3779 0678 FEFFFFEB 		bl	uart0_puts
 298:../main.c     **** 
 299:../main.c     **** 	for( i=0; i < (AT24C04_DEPTH>>4); i++ ){
 3780              		.loc 1 299 0
 3781 067c 0030A0E3 		mov	r3, #0
 3782 0680 BE304BE1 		strh	r3, [fp, #-14]	@ movhi
 3783 0684 660000EA 		b	.L35
 3784              	.L45:
 300:../main.c     **** 		uart0_puts( "\n" );
 3785              		.loc 1 300 0
 3786 0688 D4039FE5 		ldr	r0, .L56+40
 3787 068c FEFFFFEB 		bl	uart0_puts
 301:../main.c     **** 		if( i<<4 <= 0xf )
 3788              		.loc 1 301 0
 3789 0690 BE305BE1 		ldrh	r3, [fp, #-14]
 3790 0694 0332A0E1 		mov	r3, r3, asl #4
 3791 0698 0F0053E3 		cmp	r3, #15
 3792 069c 020000CA 		bgt	.L36
 302:../main.c     **** 			uart0_puts( "00" );
 3793              		.loc 1 302 0
 3794 06a0 C0039FE5 		ldr	r0, .L56+44
 3795 06a4 FEFFFFEB 		bl	uart0_puts
 3796 06a8 050000EA 		b	.L37
 3797              	.L36:
 303:../main.c     **** 		else if( i<<4 <= 0xff )
 3798              		.loc 1 303 0
 3799 06ac BE305BE1 		ldrh	r3, [fp, #-14]
 3800 06b0 0332A0E1 		mov	r3, r3, asl #4
 3801 06b4 FF0053E3 		cmp	r3, #255
 3802 06b8 010000CA 		bgt	.L37
 304:../main.c     **** 			uart0_putchar( '0' );
 3803              		.loc 1 304 0
 3804 06bc 3000A0E3 		mov	r0, #48
 3805 06c0 FEFFFFEB 		bl	uart0_putchar
 3806              	.L37:
 305:../main.c     **** 		uart0_puthex( i<<4 );
 3807              		.loc 1 305 0
 3808 06c4 BE305BE1 		ldrh	r3, [fp, #-14]
 3809 06c8 0332A0E1 		mov	r3, r3, asl #4
 3810 06cc 0300A0E1 		mov	r0, r3
 3811 06d0 FEFFFFEB 		bl	uart0_puthex
 306:../main.c     **** 		uart0_puts( "h:"  );
 3812              		.loc 1 306 0
 3813 06d4 90039FE5 		ldr	r0, .L56+48
 3814 06d8 FEFFFFEB 		bl	uart0_puts
 307:../main.c     **** 		for( j=0; j<16; j++ )
 3815              		.loc 1 307 0
 3816 06dc 0030A0E3 		mov	r3, #0
 3817 06e0 B0314BE1 		strh	r3, [fp, #-16]	@ movhi
 3818 06e4 1A0000EA 		b	.L38
 3819              	.L40:
 308:../main.c     **** 		{
 309:../main.c     **** 			if( buffer[(i<<4)+j] <= 0xf )
 3820              		.loc 1 309 0
 3821 06e8 BE305BE1 		ldrh	r3, [fp, #-14]
 3822 06ec 0322A0E1 		mov	r2, r3, asl #4
 3823 06f0 B0315BE1 		ldrh	r3, [fp, #-16]
 3824 06f4 032082E0 		add	r2, r2, r3
 3825 06f8 54339FE5 		ldr	r3, .L56+24
 3826 06fc 0C104BE2 		sub	r1, fp, #12
 3827 0700 022081E0 		add	r2, r1, r2
 3828 0704 033082E0 		add	r3, r2, r3
 3829 0708 0030D3E5 		ldrb	r3, [r3, #0]	@ zero_extendqisi2
 3830 070c 0F0053E3 		cmp	r3, #15
 3831 0710 0100008A 		bhi	.L39
 310:../main.c     **** 				uart0_putchar( '0' );
 3832              		.loc 1 310 0
 3833 0714 3000A0E3 		mov	r0, #48
 3834 0718 FEFFFFEB 		bl	uart0_putchar
 3835              	.L39:
 311:../main.c     **** 			uart0_puthex( buffer[(i<<4)+j] );
 3836              		.loc 1 311 0
 3837 071c BE305BE1 		ldrh	r3, [fp, #-14]
 3838 0720 0322A0E1 		mov	r2, r3, asl #4
 3839 0724 B0315BE1 		ldrh	r3, [fp, #-16]
 3840 0728 032082E0 		add	r2, r2, r3
 3841 072c 20339FE5 		ldr	r3, .L56+24
 3842 0730 0C004BE2 		sub	r0, fp, #12
 3843 0734 022080E0 		add	r2, r0, r2
 3844 0738 033082E0 		add	r3, r2, r3
 3845 073c 0030D3E5 		ldrb	r3, [r3, #0]	@ zero_extendqisi2
 3846 0740 0300A0E1 		mov	r0, r3
 3847 0744 FEFFFFEB 		bl	uart0_puthex
 307:../main.c     **** 		for( j=0; j<16; j++ )
 3848              		.loc 1 307 0
 3849 0748 B0315BE1 		ldrh	r3, [fp, #-16]	@ movhi
 3850 074c 013083E2 		add	r3, r3, #1
 3851 0750 B0314BE1 		strh	r3, [fp, #-16]	@ movhi
 3852              	.L38:
 307:../main.c     **** 		for( j=0; j<16; j++ )
 3853              		.loc 1 307 0 is_stmt 0 discriminator 1
 3854 0754 B0315BE1 		ldrh	r3, [fp, #-16]
 3855 0758 0F0053E3 		cmp	r3, #15
 3856 075c E1FFFF9A 		bls	.L40
 312:../main.c     **** 		}
 313:../main.c     **** 		uart0_puts( " ; " );
 3857              		.loc 1 313 0 is_stmt 1
 3858 0760 08039FE5 		ldr	r0, .L56+52
 3859 0764 FEFFFFEB 		bl	uart0_puts
 314:../main.c     **** 		for( j=0; j<16; j++ )
 3860              		.loc 1 314 0
 3861 0768 0030A0E3 		mov	r3, #0
 3862 076c B0314BE1 		strh	r3, [fp, #-16]	@ movhi
 3863 0770 250000EA 		b	.L41
 3864              	.L44:
 315:../main.c     **** 			  uart0_putchar( ( (31<buffer[(i<<4)+j]) && (buffer[(i<<4)+j]<127) ? buffer[(i<<4)+j] : '.' ) );
 3865              		.loc 1 315 0
 3866 0774 BE305BE1 		ldrh	r3, [fp, #-14]
 3867 0778 0322A0E1 		mov	r2, r3, asl #4
 3868 077c B0315BE1 		ldrh	r3, [fp, #-16]
 3869 0780 032082E0 		add	r2, r2, r3
 3870 0784 C8329FE5 		ldr	r3, .L56+24
 3871 0788 0C104BE2 		sub	r1, fp, #12
 3872 078c 022081E0 		add	r2, r1, r2
 3873 0790 033082E0 		add	r3, r2, r3
 3874 0794 0030D3E5 		ldrb	r3, [r3, #0]	@ zero_extendqisi2
 3875 0798 1F0053E3 		cmp	r3, #31
 3876 079c 1400009A 		bls	.L42
 3877              		.loc 1 315 0 is_stmt 0 discriminator 1
 3878 07a0 BE305BE1 		ldrh	r3, [fp, #-14]
 3879 07a4 0322A0E1 		mov	r2, r3, asl #4
 3880 07a8 B0315BE1 		ldrh	r3, [fp, #-16]
 3881 07ac 032082E0 		add	r2, r2, r3
 3882 07b0 9C329FE5 		ldr	r3, .L56+24
 3883 07b4 0C004BE2 		sub	r0, fp, #12
 3884 07b8 022080E0 		add	r2, r0, r2
 3885 07bc 033082E0 		add	r3, r2, r3
 3886 07c0 0030D3E5 		ldrb	r3, [r3, #0]	@ zero_extendqisi2
 3887 07c4 7E0053E3 		cmp	r3, #126
 3888 07c8 0900008A 		bhi	.L42
 3889 07cc BE305BE1 		ldrh	r3, [fp, #-14]
 3890 07d0 0322A0E1 		mov	r2, r3, asl #4
 3891 07d4 B0315BE1 		ldrh	r3, [fp, #-16]
 3892 07d8 032082E0 		add	r2, r2, r3
 3893 07dc 70329FE5 		ldr	r3, .L56+24
 3894 07e0 0C104BE2 		sub	r1, fp, #12
 3895 07e4 022081E0 		add	r2, r1, r2
 3896 07e8 033082E0 		add	r3, r2, r3
 3897 07ec 0030D3E5 		ldrb	r3, [r3, #0]	@ zero_extendqisi2
 3898 07f0 000000EA 		b	.L43
 3899              	.L42:
 3900              		.loc 1 315 0 discriminator 2
 3901 07f4 2E30A0E3 		mov	r3, #46
 3902              	.L43:
 3903              		.loc 1 315 0 discriminator 3
 3904 07f8 0300A0E1 		mov	r0, r3
 3905 07fc FEFFFFEB 		bl	uart0_putchar
 314:../main.c     **** 		for( j=0; j<16; j++ )
 3906              		.loc 1 314 0 is_stmt 1 discriminator 3
 3907 0800 B0315BE1 		ldrh	r3, [fp, #-16]	@ movhi
 3908 0804 013083E2 		add	r3, r3, #1
 3909 0808 B0314BE1 		strh	r3, [fp, #-16]	@ movhi
 3910              	.L41:
 314:../main.c     **** 		for( j=0; j<16; j++ )
 3911              		.loc 1 314 0 is_stmt 0 discriminator 1
 3912 080c B0315BE1 		ldrh	r3, [fp, #-16]
 3913 0810 0F0053E3 		cmp	r3, #15
 3914 0814 D6FFFF9A 		bls	.L44
 299:../main.c     **** 	for( i=0; i < (AT24C04_DEPTH>>4); i++ ){
 3915              		.loc 1 299 0 is_stmt 1
 3916 0818 BE305BE1 		ldrh	r3, [fp, #-14]	@ movhi
 3917 081c 013083E2 		add	r3, r3, #1
 3918 0820 BE304BE1 		strh	r3, [fp, #-14]	@ movhi
 3919              	.L35:
 299:../main.c     **** 	for( i=0; i < (AT24C04_DEPTH>>4); i++ ){
 3920              		.loc 1 299 0 is_stmt 0 discriminator 1
 3921 0824 BE305BE1 		ldrh	r3, [fp, #-14]
 3922 0828 1F0053E3 		cmp	r3, #31
 3923 082c 95FFFF9A 		bls	.L45
 316:../main.c     **** 	};
 317:../main.c     **** 
 318:../main.c     **** 	/************************************/
 319:../main.c     **** 
 320:../main.c     **** 	uart0_puts( "\n\nModificacion del contenido de la memoria IIC-EEPROM AT24C04:\n" );
 3924              		.loc 1 320 0 is_stmt 1
 3925 0830 3C029FE5 		ldr	r0, .L56+56
 3926 0834 FEFFFFEB 		bl	uart0_puts
 321:../main.c     **** 
 322:../main.c     **** 	for( i=0; i<5; i++ )
 3927              		.loc 1 322 0
 3928 0838 0030A0E3 		mov	r3, #0
 3929 083c BE304BE1 		strh	r3, [fp, #-14]	@ movhi
 3930 0840 120000EA 		b	.L46
 3931              	.L47:
 323:../main.c     **** 	{
 324:../main.c     **** 		uart0_puts( "  - Introduzca una direccion (0h-1ffh): " );
 3932              		.loc 1 324 0 discriminator 2
 3933 0844 2C029FE5 		ldr	r0, .L56+60
 3934 0848 FEFFFFEB 		bl	uart0_puts
 325:../main.c     **** 		addr = uart0_gethex( );
 3935              		.loc 1 325 0 discriminator 2
 3936 084c FEFFFFEB 		bl	uart0_gethex
 3937 0850 14000BE5 		str	r0, [fp, #-20]
 326:../main.c     **** 		uart0_puts( "  - Introduzca el dato (0h-ffh): " );
 3938              		.loc 1 326 0 discriminator 2
 3939 0854 20029FE5 		ldr	r0, .L56+64
 3940 0858 FEFFFFEB 		bl	uart0_puts
 327:../main.c     **** 		data = uart0_gethex( );
 3941              		.loc 1 327 0 discriminator 2
 3942 085c FEFFFFEB 		bl	uart0_gethex
 3943 0860 18000BE5 		str	r0, [fp, #-24]
 328:../main.c     **** 		buffer[addr] = data;
 3944              		.loc 1 328 0 discriminator 2
 3945 0864 18301BE5 		ldr	r3, [fp, #-24]
 3946 0868 FF2003E2 		and	r2, r3, #255
 3947 086c E0319FE5 		ldr	r3, .L56+24
 3948 0870 14101BE5 		ldr	r1, [fp, #-20]
 3949 0874 0C004BE2 		sub	r0, fp, #12
 3950 0878 011080E0 		add	r1, r0, r1
 3951 087c 033081E0 		add	r3, r1, r3
 3952 0880 0020C3E5 		strb	r2, [r3, #0]
 322:../main.c     **** 	for( i=0; i<5; i++ )
 3953              		.loc 1 322 0 discriminator 2
 3954 0884 BE305BE1 		ldrh	r3, [fp, #-14]	@ movhi
 3955 0888 013083E2 		add	r3, r3, #1
 3956 088c BE304BE1 		strh	r3, [fp, #-14]	@ movhi
 3957              	.L46:
 322:../main.c     **** 	for( i=0; i<5; i++ )
 3958              		.loc 1 322 0 is_stmt 0 discriminator 1
 3959 0890 BE305BE1 		ldrh	r3, [fp, #-14]
 3960 0894 040053E3 		cmp	r3, #4
 3961 0898 E9FFFF9A 		bls	.L47
 329:../main.c     **** 	}
 330:../main.c     **** 
 331:../main.c     **** 	/************************************/
 332:../main.c     **** 
 333:../main.c     **** 	uart0_puts( "\nVolcando en la IIC-EEPROM AT24C04 el contenido de la RAM:\n" );
 3962              		.loc 1 333 0 is_stmt 1
 3963 089c DC019FE5 		ldr	r0, .L56+68
 3964 08a0 FEFFFFEB 		bl	uart0_puts
 334:../main.c     **** 
 335:../main.c     **** 	/************************************/
 336:../main.c     **** 
 337:../main.c     **** 	for( i=0; i<AT24C04_DEPTH; i++ )
 3965              		.loc 1 337 0
 3966 08a4 0030A0E3 		mov	r3, #0
 3967 08a8 BE304BE1 		strh	r3, [fp, #-14]	@ movhi
 3968 08ac 0C0000EA 		b	.L48
 3969              	.L49:
 338:../main.c     **** 		at24c04_bytewrite( i, buffer[i] );
 3970              		.loc 1 338 0 discriminator 2
 3971 08b0 BE205BE1 		ldrh	r2, [fp, #-14]
 3972 08b4 98319FE5 		ldr	r3, .L56+24
 3973 08b8 0C104BE2 		sub	r1, fp, #12
 3974 08bc 022081E0 		add	r2, r1, r2
 3975 08c0 033082E0 		add	r3, r2, r3
 3976 08c4 0030D3E5 		ldrb	r3, [r3, #0]	@ zero_extendqisi2
 3977 08c8 BE205BE1 		ldrh	r2, [fp, #-14]
 3978 08cc 0200A0E1 		mov	r0, r2
 3979 08d0 0310A0E1 		mov	r1, r3
 3980 08d4 FEFFFFEB 		bl	at24c04_bytewrite
 337:../main.c     **** 	for( i=0; i<AT24C04_DEPTH; i++ )
 3981              		.loc 1 337 0 discriminator 2
 3982 08d8 BE305BE1 		ldrh	r3, [fp, #-14]	@ movhi
 3983 08dc 013083E2 		add	r3, r3, #1
 3984 08e0 BE304BE1 		strh	r3, [fp, #-14]	@ movhi
 3985              	.L48:
 337:../main.c     **** 	for( i=0; i<AT24C04_DEPTH; i++ )
 3986              		.loc 1 337 0 is_stmt 0 discriminator 1
 3987 08e4 BE205BE1 		ldrh	r2, [fp, #-14]
 3988 08e8 50319FE5 		ldr	r3, .L56+4
 3989 08ec 030052E1 		cmp	r2, r3
 3990 08f0 EEFFFF9A 		bls	.L49
 339:../main.c     **** 	uart0_puts( " - Escritura aleatoria (" );
 3991              		.loc 1 339 0 is_stmt 1
 3992 08f4 88019FE5 		ldr	r0, .L56+72
 3993 08f8 FEFFFFEB 		bl	uart0_puts
 340:../main.c     **** 	uart0_putint( AT24C04_DEPTH );
 3994              		.loc 1 340 0
 3995 08fc 020CA0E3 		mov	r0, #512
 3996 0900 FEFFFFEB 		bl	uart0_putint
 341:../main.c     **** 	uart0_puts( " bytes)\n" );
 3997              		.loc 1 341 0
 3998 0904 3C019FE5 		ldr	r0, .L56+12
 3999 0908 FEFFFFEB 		bl	uart0_puts
 342:../main.c     **** 
 343:../main.c     **** 	at24c04_load( buffer_aux );
 4000              		.loc 1 343 0
 4001 090c 013B4BE2 		sub	r3, fp, #1024
 4002 0910 0C3043E2 		sub	r3, r3, #12
 4003 0914 0C3043E2 		sub	r3, r3, #12
 4004 0918 0300A0E1 		mov	r0, r3
 4005 091c FEFFFFEB 		bl	at24c04_load
 344:../main.c     **** 	for( i=0; i<AT24C04_DEPTH; i++ )
 4006              		.loc 1 344 0
 4007 0920 0030A0E3 		mov	r3, #0
 4008 0924 BE304BE1 		strh	r3, [fp, #-14]	@ movhi
 4009 0928 120000EA 		b	.L50
 4010              	.L52:
 345:../main.c     **** 		if( buffer[i] != buffer_aux[i] )
 4011              		.loc 1 345 0
 4012 092c BE205BE1 		ldrh	r2, [fp, #-14]
 4013 0930 1C319FE5 		ldr	r3, .L56+24
 4014 0934 0C004BE2 		sub	r0, fp, #12
 4015 0938 022080E0 		add	r2, r0, r2
 4016 093c 033082E0 		add	r3, r2, r3
 4017 0940 0020D3E5 		ldrb	r2, [r3, #0]	@ zero_extendqisi2
 4018 0944 BE105BE1 		ldrh	r1, [fp, #-14]
 4019 0948 08319FE5 		ldr	r3, .L56+28
 4020 094c 0C004BE2 		sub	r0, fp, #12
 4021 0950 011080E0 		add	r1, r0, r1
 4022 0954 033081E0 		add	r3, r1, r3
 4023 0958 0030D3E5 		ldrb	r3, [r3, #0]	@ zero_extendqisi2
 4024 095c 030052E1 		cmp	r2, r3
 4025 0960 0100000A 		beq	.L51
 346:../main.c     **** 			uart0_puts( "ERROR: La escritura aleatoria falla.\n" );
 4026              		.loc 1 346 0
 4027 0964 1C019FE5 		ldr	r0, .L56+76
 4028 0968 FEFFFFEB 		bl	uart0_puts
 4029              	.L51:
 344:../main.c     **** 	for( i=0; i<AT24C04_DEPTH; i++ )
 4030              		.loc 1 344 0
 4031 096c BE305BE1 		ldrh	r3, [fp, #-14]	@ movhi
 4032 0970 013083E2 		add	r3, r3, #1
 4033 0974 BE304BE1 		strh	r3, [fp, #-14]	@ movhi
 4034              	.L50:
 344:../main.c     **** 	for( i=0; i<AT24C04_DEPTH; i++ )
 4035              		.loc 1 344 0 is_stmt 0 discriminator 1
 4036 0978 BE205BE1 		ldrh	r2, [fp, #-14]
 4037 097c BC309FE5 		ldr	r3, .L56+4
 4038 0980 030052E1 		cmp	r2, r3
 4039 0984 E8FFFF9A 		bls	.L52
 347:../main.c     **** 
 348:../main.c     **** 	/************************************/
 349:../main.c     **** 
 350:../main.c     **** 	at24c04_store( buffer );
 4040              		.loc 1 350 0 is_stmt 1
 4041 0988 863F4BE2 		sub	r3, fp, #536
 4042 098c 0300A0E1 		mov	r0, r3
 4043 0990 FEFFFFEB 		bl	at24c04_store
 351:../main.c     **** 	uart0_puts( " - Escritura secuencial (" );
 4044              		.loc 1 351 0
 4045 0994 F0009FE5 		ldr	r0, .L56+80
 4046 0998 FEFFFFEB 		bl	uart0_puts
 352:../main.c     **** 	uart0_putint( AT24C04_DEPTH );
 4047              		.loc 1 352 0
 4048 099c 020CA0E3 		mov	r0, #512
 4049 09a0 FEFFFFEB 		bl	uart0_putint
 353:../main.c     **** 	uart0_puts( " bytes)\n" );
 4050              		.loc 1 353 0
 4051 09a4 9C009FE5 		ldr	r0, .L56+12
 4052 09a8 FEFFFFEB 		bl	uart0_puts
 354:../main.c     **** 
 355:../main.c     **** 	at24c04_load( buffer_aux );
 4053              		.loc 1 355 0
 4054 09ac 013B4BE2 		sub	r3, fp, #1024
 4055 09b0 0C3043E2 		sub	r3, r3, #12
 4056 09b4 0C3043E2 		sub	r3, r3, #12
 4057 09b8 0300A0E1 		mov	r0, r3
 4058 09bc FEFFFFEB 		bl	at24c04_load
 356:../main.c     **** 	for( i=0; i<AT24C04_DEPTH; i++ )
 4059              		.loc 1 356 0
 4060 09c0 0030A0E3 		mov	r3, #0
 4061 09c4 BE304BE1 		strh	r3, [fp, #-14]	@ movhi
 4062 09c8 120000EA 		b	.L53
 4063              	.L55:
 357:../main.c     **** 		if( buffer[i] != buffer_aux[i] )
 4064              		.loc 1 357 0
 4065 09cc BE205BE1 		ldrh	r2, [fp, #-14]
 4066 09d0 7C309FE5 		ldr	r3, .L56+24
 4067 09d4 0C104BE2 		sub	r1, fp, #12
 4068 09d8 022081E0 		add	r2, r1, r2
 4069 09dc 033082E0 		add	r3, r2, r3
 4070 09e0 0020D3E5 		ldrb	r2, [r3, #0]	@ zero_extendqisi2
 4071 09e4 BE105BE1 		ldrh	r1, [fp, #-14]
 4072 09e8 68309FE5 		ldr	r3, .L56+28
 4073 09ec 0C004BE2 		sub	r0, fp, #12
 4074 09f0 011080E0 		add	r1, r0, r1
 4075 09f4 033081E0 		add	r3, r1, r3
 4076 09f8 0030D3E5 		ldrb	r3, [r3, #0]	@ zero_extendqisi2
 4077 09fc 030052E1 		cmp	r2, r3
 4078 0a00 0100000A 		beq	.L54
 358:../main.c     **** 			uart0_puts( "ERROR: La escritura secuencial falla.\n" );
 4079              		.loc 1 358 0
 4080 0a04 84009FE5 		ldr	r0, .L56+84
 4081 0a08 FEFFFFEB 		bl	uart0_puts
 4082              	.L54:
 356:../main.c     **** 	for( i=0; i<AT24C04_DEPTH; i++ )
 4083              		.loc 1 356 0
 4084 0a0c BE305BE1 		ldrh	r3, [fp, #-14]	@ movhi
 4085 0a10 013083E2 		add	r3, r3, #1
 4086 0a14 BE304BE1 		strh	r3, [fp, #-14]	@ movhi
 4087              	.L53:
 356:../main.c     **** 	for( i=0; i<AT24C04_DEPTH; i++ )
 4088              		.loc 1 356 0 is_stmt 0 discriminator 1
 4089 0a18 BE205BE1 		ldrh	r2, [fp, #-14]
 4090 0a1c 1C309FE5 		ldr	r3, .L56+4
 4091 0a20 030052E1 		cmp	r2, r3
 4092 0a24 E8FFFF9A 		bls	.L55
 359:../main.c     **** 
 360:../main.c     **** 	/************************************/
 361:../main.c     **** 
 362:../main.c     **** 	uart0_puts( "\nApague la placa y vuelva a cargar y ejecutar el programa.\n" );
 4093              		.loc 1 362 0 is_stmt 1
 4094 0a28 64009FE5 		ldr	r0, .L56+88
 4095 0a2c FEFFFFEB 		bl	uart0_puts
 363:../main.c     **** }
 4096              		.loc 1 363 0
 4097 0a30 0CD04BE2 		sub	sp, fp, #12
 4098 0a34 00689DE8 		ldmfd	sp, {fp, sp, lr}
 4099 0a38 1EFF2FE1 		bx	lr
 4100              	.L57:
 4101              		.align	2
 4102              	.L56:
 4103 0a3c 80000000 		.word	.LC10
 4104 0a40 FF010000 		.word	511
 4105 0a44 B8000000 		.word	.LC11
 4106 0a48 D0000000 		.word	.LC12
 4107 0a4c DC000000 		.word	.LC13
 4108 0a50 F4000000 		.word	.LC14
 4109 0a54 F4FDFFFF 		.word	-524
 4110 0a58 F4FBFFFF 		.word	-1036
 4111 0a5c FC000000 		.word	.LC15
 4112 0a60 38010000 		.word	.LC16
 4113 0a64 7C010000 		.word	.LC17
 4114 0a68 80010000 		.word	.LC18
 4115 0a6c 84010000 		.word	.LC19
 4116 0a70 88010000 		.word	.LC20
 4117 0a74 8C010000 		.word	.LC21
 4118 0a78 CC010000 		.word	.LC22
 4119 0a7c F8010000 		.word	.LC23
 4120 0a80 1C020000 		.word	.LC24
 4121 0a84 58020000 		.word	.LC25
 4122 0a88 74020000 		.word	.LC26
 4123 0a8c 9C020000 		.word	.LC27
 4124 0a90 B8020000 		.word	.LC28
 4125 0a94 E0020000 		.word	.LC29
 4126              		.cfi_endproc
 4127              	.LFE8:
 4129              		.align	2
 4130              		.global	loop
 4132              	loop:
 4133              	.LFB9:
 364:../main.c     **** 
 365:../main.c     **** int loop(void) {
 4134              		.loc 1 365 0
 4135              		.cfi_startproc
 4136              		@ Function supports interworking.
 4137              		@ args = 0, pretend = 0, frame = 0
 4138              		@ frame_needed = 1, uses_anonymous_args = 0
 4139 0a98 0DC0A0E1 		mov	ip, sp
 4140              	.LCFI18:
 4141              		.cfi_def_cfa_register 12
 4142 0a9c 00D82DE9 		stmfd	sp!, {fp, ip, lr, pc}
 4143 0aa0 04B04CE2 		sub	fp, ip, #4
 4144              		.cfi_offset 14, -8
 4145              		.cfi_offset 13, -12
 4146              		.cfi_offset 11, -16
 4147              	.LCFI19:
 4148              		.cfi_def_cfa 11, 4
 366:../main.c     **** 	return 0;
 4149              		.loc 1 366 0
 4150 0aa4 0030A0E3 		mov	r3, #0
 367:../main.c     **** }
 4151              		.loc 1 367 0
 4152 0aa8 0300A0E1 		mov	r0, r3
 4153 0aac 0CD04BE2 		sub	sp, fp, #12
 4154 0ab0 00689DE8 		ldmfd	sp, {fp, sp, lr}
 4155 0ab4 1EFF2FE1 		bx	lr
 4156              		.cfi_endproc
 4157              	.LFE9:
 4159              		.align	2
 4160              		.global	main
 4162              	main:
 4163              	.LFB10:
 368:../main.c     **** 
 369:../main.c     **** int main(void) {
 4164              		.loc 1 369 0
 4165              		.cfi_startproc
 4166              		@ Function supports interworking.
 4167              		@ args = 0, pretend = 0, frame = 0
 4168              		@ frame_needed = 1, uses_anonymous_args = 0
 4169 0ab8 0DC0A0E1 		mov	ip, sp
 4170              	.LCFI20:
 4171              		.cfi_def_cfa_register 12
 4172 0abc 00D82DE9 		stmfd	sp!, {fp, ip, lr, pc}
 4173 0ac0 04B04CE2 		sub	fp, ip, #4
 4174              		.cfi_offset 14, -8
 4175              		.cfi_offset 13, -12
 4176              		.cfi_offset 11, -16
 4177              	.LCFI21:
 4178              		.cfi_def_cfa 11, 4
 370:../main.c     **** 
 371:../main.c     **** 	setup();
 4179              		.loc 1 371 0
 4180 0ac4 FEFFFFEB 		bl	setup
 372:../main.c     **** 	startup();
 4181              		.loc 1 372 0
 4182 0ac8 FEFFFFEB 		bl	startup
 4183              	.L60:
 373:../main.c     **** 
 374:../main.c     **** 	while (1) {
 375:../main.c     **** 		loop();
 4184              		.loc 1 375 0 discriminator 1
 4185 0acc FEFFFFEB 		bl	loop
 376:../main.c     **** 	}
 4186              		.loc 1 376 0 discriminator 1
 4187 0ad0 FDFFFFEA 		b	.L60
 4188              		.cfi_endproc
 4189              	.LFE10:
 4191              		.bss
 4192              		.align	2
 4193              	rtc_time.5144:
 4194 0000 00000000 		.space	7
 4194      000000
 4195 0007 00       		.align	2
 4196              	rtc_time.5138:
 4197 0008 00000000 		.space	7
 4197      000000
 4198 000f 00       		.align	2
 4199              	n.5128:
 4200 0010 00000000 		.space	4
 4201              		.text
 4202              	.Letext0: